                              1 ;;; gcc for m6809 : Mar 17 2019 12:45:32
                              2 ;;; 4.3.6 (gcc6809)
                              3 ;;; ABI version 1
                              4 ;;; -mabi=bx -mint8 -fomit-frame-pointer -O0
                              5 	.module	main.enr.c
                              6 ; GNU C (GCC) version 4.3.6 (gcc6809) (m6809-unknown-none)
                              7 ;	compiled by GNU C version 7.4.0, GMP version 4.3.2, MPFR version 2.4.2.
                              8 ; GGC heuristics: --param ggc-min-expand=100 --param ggc-min-heapsize=131072
                              9 ; options passed:  -fno-ipa-reference -ftree-ter -fno-gcse -fverbose-asm -W
                             10 ; -Wall -Wextra -Wconversion -Werror -fomit-frame-pointer
                             11 ; -fno-toplevel-reorder -mint8 -msoft-reg-count=0 -std=gnu99
                             12 ; -fno-time-report
                             13 ; -IC:\Vectrex\Vide2.6_RC03.w64\Vide.w64\C\PeerC\vectrex\include
                             14 ; -D__RUM_FUNCTION=1 -DOMMIT_FRAMEPOINTER=1
                             15 ; -IC:\Vectrex\WorkFolder\VectrexTest\FalloutTest\include
                             16 ; C:\Vectrex\WorkFolder\VectrexTest\FalloutTest\source\main.enr.c
                             17 ; options enabled:  -falign-loops -fargument-alias -fauto-inc-dec
                             18 ; -fbranch-count-reg -fcommon -fearly-inlining
                             19 ; -feliminate-unused-debug-types -ffunction-cse -fgcse-lm -fident -fivopts
                             20 ; -fkeep-static-consts -fleading-underscore -fmath-errno
                             21 ; -fmerge-debug-strings -fmove-loop-invariants -fomit-frame-pointer
                             22 ; -fpcc-struct-return -fpeephole -fsched-interblock -fsched-spec
                             23 ; -fsched-stalled-insns-dep -fsigned-zeros -fsplit-ivs-in-unroller
                             24 ; -ftrapping-math -ftree-loop-im -ftree-loop-ivcanon -ftree-loop-optimize
                             25 ; -ftree-parallelize-loops= -ftree-reassoc -ftree-scev-cprop -ftree-ter
                             26 ; -ftree-vect-loop-version -fverbose-asm -fzero-initialized-in-bss
                             27 
                             28 ; Compiler executable checksum: 8f282e2d9663ae6148257c524e608c63
                             29 
                             30 	.globl	_MousePointer
                             31 	.area	.text
   0000                      32 _MousePointer:
   0000 04                   33 	.byte	4
   0001 00                   34 	.byte	0
   0002 06                   35 	.byte	6
   0003 FC                   36 	.byte	-4
   0004 00                   37 	.byte	0
   0005 FC                   38 	.byte	-4
   0006 FD                   39 	.byte	-3
   0007 04                   40 	.byte	4
   0008 FD                   41 	.byte	-3
   0009 04                   42 	.byte	4
   000A 00                   43 	.byte	0
                             44 	.globl	_exitText
                             45 	.area	.data
   0000                      46 _exitText:
   0000 00                   47 	.byte	0
                             48 	.area	.text
                             49 	.globl	_setup
   000B                      50 _setup:
                             51 ;----- asm -----
                             52 ; 68 "C:\Vectrex\WorkFolder\VectrexTest\FalloutTest\source\main.enr.c" 1
                             53 	; #ENR#[67]enable_controller_1_x();
                             54 ;--- end asm ---
   000B BD 00 2C      [ 8]   55 	jsr	_enable_controller_1_x
                             56 ;----- asm -----
                             57 ; 70 "C:\Vectrex\WorkFolder\VectrexTest\FalloutTest\source\main.enr.c" 1
                             58 	; #ENR#[68]enable_controller_1_y();
                             59 ;--- end asm ---
   000E BD 00 26      [ 8]   60 	jsr	_enable_controller_1_y
                             61 ;----- asm -----
                             62 ; 72 "C:\Vectrex\WorkFolder\VectrexTest\FalloutTest\source\main.enr.c" 1
                             63 	; #ENR#[69]disable_controller_2_x();
                             64 ;--- end asm ---
   0011 BD 00 22      [ 8]   65 	jsr	_disable_controller_2_x
                             66 ;----- asm -----
                             67 ; 74 "C:\Vectrex\WorkFolder\VectrexTest\FalloutTest\source\main.enr.c" 1
                             68 	; #ENR#[70]disable_controller_2_y();
                             69 ;--- end asm ---
   0014 BD 00 1E      [ 8]   70 	jsr	_disable_controller_2_y
                             71 ;----- asm -----
                             72 ; 76 "C:\Vectrex\WorkFolder\VectrexTest\FalloutTest\source\main.enr.c" 1
                             73 	; #ENR#[71]joy_digital();
                             74 ;--- end asm ---
   0017 BD 00 00      [ 8]   75 	jsr	___Joy_Digital
                             76 ;----- asm -----
                             77 ; 79 "C:\Vectrex\WorkFolder\VectrexTest\FalloutTest\source\main.enr.c" 1
                             78 	; #ENR#[73]wait_recal();
                             79 ;--- end asm ---
   001A BD 00 00      [ 8]   80 	jsr	___Wait_Recal
   001D 39            [ 5]   81 	rts
   001E                      82 _disable_controller_2_y:
   001E 7F 00 00      [ 7]   83 	clr	_Vec_Joy_Mux_2_Y	; Vec_Joy_Mux_2_Y
   0021 39            [ 5]   84 	rts
   0022                      85 _disable_controller_2_x:
   0022 7F 00 00      [ 7]   86 	clr	_Vec_Joy_Mux_2_X	; Vec_Joy_Mux_2_X
   0025 39            [ 5]   87 	rts
   0026                      88 _enable_controller_1_y:
   0026 C6 03         [ 2]   89 	ldb	#3	;,
   0028 F7 00 00      [ 5]   90 	stb	_Vec_Joy_Mux_1_Y	;, Vec_Joy_Mux_1_Y
   002B 39            [ 5]   91 	rts
   002C                      92 _enable_controller_1_x:
   002C C6 01         [ 2]   93 	ldb	#1	;,
   002E F7 00 00      [ 5]   94 	stb	_Vec_Joy_Mux_1_X	;, Vec_Joy_Mux_1_X
   0031 39            [ 5]   95 	rts
   0032                      96 LC0:
   0032 52 4F 42 4F 54 20    97 	.byte	82,79,66,79,84,32,82,69
        52 45
   003A 50 41 49 52 20 56    98 	.byte	80,65,73,82,32,86,48,46
        30 2E
   0042 31 80 00             99 	.byte	49,-128,0
   0045                     100 LC1:
   0045 31 20 44 41 54 41   101 	.byte	49,32,68,65,84,65,32,84
        20 54
   004D 52 41 4E 53 46 45   102 	.byte	82,65,78,83,70,69,82,32
        52 20
   0055 55 50 4C 4F 41 44   103 	.byte	85,80,76,79,65,68,-128,0
        80 00
   005D                     104 LC2:
   005D 32 20 52 45 43 4F   105 	.byte	50,32,82,69,67,79,78,83
        4E 53
   0065 54 52 55 43 54 20   106 	.byte	84,82,85,67,84,32,66,73
        42 49
   006D 4E 41 52 59 80 00   107 	.byte	78,65,82,89,-128,0
   0073                     108 LC3:
   0073 33 20 52 45 50 41   109 	.byte	51,32,82,69,80,65,73,82
        49 52
   007B 20 49 44 45 4E 54   110 	.byte	32,73,68,69,78,84,73,84
        49 54
   0083 59 20 43 4F 52 45   111 	.byte	89,32,67,79,82,69,-128,0
        80 00
   008B                     112 LC4:
   008B 34 20 43 4F 4D 50   113 	.byte	52,32,67,79,77,80,73,76
        49 4C
   0093 45 20 49 4E 54 45   114 	.byte	69,32,73,78,84,69,76,76
        4C 4C
   009B 49 47 45 4E 43 45   115 	.byte	73,71,69,78,67,69,-128,0
        80 00
   00A3                     116 LC5:
   00A3 53 54 41 52 54 49   117 	.byte	83,84,65,82,84,73,78,71
        4E 47
   00AB 20 52 4F 55 54 49   118 	.byte	32,82,79,85,84,73,78,69
        4E 45
   00B3 20 31 80 00         119 	.byte	32,49,-128,0
   00B7                     120 LC6:
   00B7 54 48 45 4E 20 52   121 	.byte	84,72,69,78,32,82,79,85
        4F 55
   00BF 54 49 4E 45 20 32   122 	.byte	84,73,78,69,32,50,-128,0
        80 00
   00C7                     123 LC7:
   00C7 4E 4F 57 20 52 4F   124 	.byte	78,79,87,32,82,79,85,84
        55 54
   00CF 49 4E 45 20 33 80   125 	.byte	73,78,69,32,51,-128,0
        00
   00D6                     126 LC8:
   00D6 46 49 4E 41 4C 20   127 	.byte	70,73,78,65,76,32,82,79
        52 4F
   00DE 55 54 49 4E 45 20   128 	.byte	85,84,73,78,69,32,52,-128
        34 80
   00E6 00                  129 	.byte	0
                            130 	.globl	_mainMenu
   00E7                     131 _mainMenu:
   00E7 34 60         [ 7]  132 	pshs	y,u	;
   00E9 32 7E         [ 5]  133 	leas	-2,s	;,,
                            134 ;----- asm -----
                            135 ; 88 "C:\Vectrex\WorkFolder\VectrexTest\FalloutTest\source\main.enr.c" 1
                            136 	; #ENR#[81]print_str_d(120, -90, );
                            137 ;--- end asm ---
   00EB C6 78         [ 2]  138 	ldb	#120	;,
   00ED E7 E2         [ 6]  139 	stb	,-s	;,
   00EF 8E 00 32      [ 3]  140 	ldx	#LC0	;,
   00F2 C6 A6         [ 2]  141 	ldb	#-90	;,
   00F4 BD 00 00      [ 8]  142 	jsr	__Print_Str_d
   00F7 32 61         [ 5]  143 	leas	1,s	;,,
                            144 ;----- asm -----
                            145 ; 90 "C:\Vectrex\WorkFolder\VectrexTest\FalloutTest\source\main.enr.c" 1
                            146 	; #ENR#[82]print_str_d(70, -120, );
                            147 ;--- end asm ---
   00F9 C6 46         [ 2]  148 	ldb	#70	;,
   00FB E7 E2         [ 6]  149 	stb	,-s	;,
   00FD 8E 00 45      [ 3]  150 	ldx	#LC1	;,
   0100 C6 88         [ 2]  151 	ldb	#-120	;,
   0102 BD 00 00      [ 8]  152 	jsr	__Print_Str_d
   0105 32 61         [ 5]  153 	leas	1,s	;,,
                            154 ;----- asm -----
                            155 ; 92 "C:\Vectrex\WorkFolder\VectrexTest\FalloutTest\source\main.enr.c" 1
                            156 	; #ENR#[83]print_str_d(40, -120, );
                            157 ;--- end asm ---
   0107 C6 28         [ 2]  158 	ldb	#40	;,
   0109 E7 E2         [ 6]  159 	stb	,-s	;,
   010B 8E 00 5D      [ 3]  160 	ldx	#LC2	;,
   010E C6 88         [ 2]  161 	ldb	#-120	;,
   0110 BD 00 00      [ 8]  162 	jsr	__Print_Str_d
   0113 32 61         [ 5]  163 	leas	1,s	;,,
                            164 ;----- asm -----
                            165 ; 94 "C:\Vectrex\WorkFolder\VectrexTest\FalloutTest\source\main.enr.c" 1
                            166 	; #ENR#[84]print_str_d(10, -120, );
                            167 ;--- end asm ---
   0115 C6 0A         [ 2]  168 	ldb	#10	;,
   0117 E7 E2         [ 6]  169 	stb	,-s	;,
   0119 8E 00 73      [ 3]  170 	ldx	#LC3	;,
   011C C6 88         [ 2]  171 	ldb	#-120	;,
   011E BD 00 00      [ 8]  172 	jsr	__Print_Str_d
   0121 32 61         [ 5]  173 	leas	1,s	;,,
                            174 ;----- asm -----
                            175 ; 96 "C:\Vectrex\WorkFolder\VectrexTest\FalloutTest\source\main.enr.c" 1
                            176 	; #ENR#[85]print_str_d(-20, -120, );
                            177 ;--- end asm ---
   0123 C6 EC         [ 2]  178 	ldb	#-20	;,
   0125 E7 E2         [ 6]  179 	stb	,-s	;,
   0127 8E 00 8B      [ 3]  180 	ldx	#LC4	;,
   012A C6 88         [ 2]  181 	ldb	#-120	;,
   012C BD 00 00      [ 8]  182 	jsr	__Print_Str_d
   012F 32 61         [ 5]  183 	leas	1,s	;,,
                            184 ;----- asm -----
                            185 ; 99 "C:\Vectrex\WorkFolder\VectrexTest\FalloutTest\source\main.enr.c" 1
                            186 	; #ENR#[87]ym_sound();
                            187 ; 91 "C:\Vectrex\WorkFolder\VectrexTest\FalloutTest\include/ymPlayerOptimSpeed.h" 1
   0131 BD 00 00      [ 8]  188 	jsr do_ym_sound; YM_SOUND
                            189 	
                            190 ; 101 "C:\Vectrex\WorkFolder\VectrexTest\FalloutTest\source\main.enr.c" 1
                            191 	; #ENR#[88]if (ym_data_current == 0)
                            192 ;--- end asm ---
   0134 BE 00 00      [ 6]  193 	ldx	_ym_data_current	; ym_data_current.1, ym_data_current
   0137 8C 00 00      [ 4]  194 	cmpx	#0	; ym_data_current.1
   013A 26 0A         [ 3]  195 	bne	L12	;
                            196 ;----- asm -----
                            197 ; 104 "C:\Vectrex\WorkFolder\VectrexTest\FalloutTest\source\main.enr.c" 1
                            198 	; #ENR#[90]ym_init(&anbass_data);
                            199 ;--- end asm ---
   013C 8E 00 00      [ 3]  200 	ldx	#_ANbass_data	; tmp38,
   013F AF E4         [ 5]  201 	stx	,s	; tmp38, u
                            202 ;----- asm -----
                            203 ; 94 "C:\Vectrex\WorkFolder\VectrexTest\FalloutTest\include/ymPlayerOptimSpeed.h" 1
   0141 EE E4         [ 5]  204 	ldu ,s	; u
   0143 BD 00 00      [ 8]  205 	jsr init_ym_sound; YM_INIT
                            206 	
                            207 ;--- end asm ---
   0146                     208 L12:
                            209 ;----- asm -----
                            210 ; 107 "C:\Vectrex\WorkFolder\VectrexTest\FalloutTest\source\main.enr.c" 1
                            211 	; #ENR#[92]wait_recal();
                            212 ;--- end asm ---
   0146 BD 00 00      [ 8]  213 	jsr	___Wait_Recal
                            214 ;----- asm -----
                            215 ; 109 "C:\Vectrex\WorkFolder\VectrexTest\FalloutTest\source\main.enr.c" 1
                            216 	; #ENR#[93]do_sound();
                            217 ;--- end asm ---
   0149 BD 00 00      [ 8]  218 	jsr	__Do_Sound
                            219 ;----- asm -----
                            220 ; 113 "C:\Vectrex\WorkFolder\VectrexTest\FalloutTest\source\main.enr.c" 1
                            221 	; #ENR#[96]if (vec_buttons & 1) {
                            222 ;--- end asm ---
   014C F6 00 00      [ 5]  223 	ldb	_Vec_Buttons	; Vec_Buttons.2, Vec_Buttons
   014F C4 01         [ 2]  224 	andb	#1	; D.3117,
   0151 5D            [ 2]  225 	tstb	; D.3118
   0152 27 16         [ 3]  226 	beq	L13	;
                            227 ;----- asm -----
                            228 ; 115 "C:\Vectrex\WorkFolder\VectrexTest\FalloutTest\source\main.enr.c" 1
                            229 	; #ENR#[97]gamestate = game_datatransfer;
                            230 ;--- end asm ---
   0154 C6 01         [ 2]  231 	ldb	#1	;,
   0156 F7 00 02      [ 5]  232 	stb	_gameState	;, gameState
                            233 ;----- asm -----
                            234 ; 117 "C:\Vectrex\WorkFolder\VectrexTest\FalloutTest\source\main.enr.c" 1
                            235 	; #ENR#[98]print_str_d(-70, -120, );
                            236 ;--- end asm ---
   0159 C6 BA         [ 2]  237 	ldb	#-70	;,
   015B E7 E2         [ 6]  238 	stb	,-s	;,
   015D 8E 00 A3      [ 3]  239 	ldx	#LC5	;,
   0160 C6 88         [ 2]  240 	ldb	#-120	;,
   0162 BD 00 00      [ 8]  241 	jsr	__Print_Str_d
   0165 32 61         [ 5]  242 	leas	1,s	;,,
   0167 16 00 56      [ 5]  243 	lbra	L17	;
   016A                     244 L13:
   016A F6 00 00      [ 5]  245 	ldb	_Vec_Buttons	; Vec_Buttons.4, Vec_Buttons
   016D C4 02         [ 2]  246 	andb	#2	; D.3120,
   016F 5D            [ 2]  247 	tstb	; D.3120
   0170 27 16         [ 3]  248 	beq	L15	;
                            249 ;----- asm -----
                            250 ; 121 "C:\Vectrex\WorkFolder\VectrexTest\FalloutTest\source\main.enr.c" 1
                            251 	; #ENR#[101]gamestate = game_reconstructbin;
                            252 ;--- end asm ---
   0172 C6 02         [ 2]  253 	ldb	#2	;,
   0174 F7 00 02      [ 5]  254 	stb	_gameState	;, gameState
                            255 ;----- asm -----
                            256 ; 123 "C:\Vectrex\WorkFolder\VectrexTest\FalloutTest\source\main.enr.c" 1
                            257 	; #ENR#[102]print_str_d(-70, -120, );
                            258 ;--- end asm ---
   0177 C6 BA         [ 2]  259 	ldb	#-70	;,
   0179 E7 E2         [ 6]  260 	stb	,-s	;,
   017B 8E 00 B7      [ 3]  261 	ldx	#LC6	;,
   017E C6 88         [ 2]  262 	ldb	#-120	;,
   0180 BD 00 00      [ 8]  263 	jsr	__Print_Str_d
   0183 32 61         [ 5]  264 	leas	1,s	;,,
   0185 16 00 38      [ 5]  265 	lbra	L17	;
   0188                     266 L15:
   0188 F6 00 00      [ 5]  267 	ldb	_Vec_Buttons	; Vec_Buttons.5, Vec_Buttons
   018B C4 04         [ 2]  268 	andb	#4	; D.3122,
   018D 5D            [ 2]  269 	tstb	; D.3122
   018E 27 15         [ 3]  270 	beq	L16	;
                            271 ;----- asm -----
                            272 ; 127 "C:\Vectrex\WorkFolder\VectrexTest\FalloutTest\source\main.enr.c" 1
                            273 	; #ENR#[105]gamestate = game_repairidentity;
                            274 ;--- end asm ---
   0190 C6 03         [ 2]  275 	ldb	#3	;,
   0192 F7 00 02      [ 5]  276 	stb	_gameState	;, gameState
                            277 ;----- asm -----
                            278 ; 129 "C:\Vectrex\WorkFolder\VectrexTest\FalloutTest\source\main.enr.c" 1
                            279 	; #ENR#[106]print_str_d(-70, -120, );
                            280 ;--- end asm ---
   0195 C6 BA         [ 2]  281 	ldb	#-70	;,
   0197 E7 E2         [ 6]  282 	stb	,-s	;,
   0199 8E 00 C7      [ 3]  283 	ldx	#LC7	;,
   019C C6 88         [ 2]  284 	ldb	#-120	;,
   019E BD 00 00      [ 8]  285 	jsr	__Print_Str_d
   01A1 32 61         [ 5]  286 	leas	1,s	;,,
   01A3 20 1B         [ 3]  287 	bra	L17	;
   01A5                     288 L16:
   01A5 F6 00 00      [ 5]  289 	ldb	_Vec_Buttons	; Vec_Buttons.6, Vec_Buttons
   01A8 C4 08         [ 2]  290 	andb	#8	; D.3124,
   01AA 5D            [ 2]  291 	tstb	; D.3124
   01AB 27 13         [ 3]  292 	beq	L17	;
                            293 ;----- asm -----
                            294 ; 133 "C:\Vectrex\WorkFolder\VectrexTest\FalloutTest\source\main.enr.c" 1
                            295 	; #ENR#[109]gamestate = game_compileint;
                            296 ;--- end asm ---
   01AD C6 04         [ 2]  297 	ldb	#4	;,
   01AF F7 00 02      [ 5]  298 	stb	_gameState	;, gameState
                            299 ;----- asm -----
                            300 ; 135 "C:\Vectrex\WorkFolder\VectrexTest\FalloutTest\source\main.enr.c" 1
                            301 	; #ENR#[110]print_str_d(-70, -120, );
                            302 ;--- end asm ---
   01B2 C6 BA         [ 2]  303 	ldb	#-70	;,
   01B4 E7 E2         [ 6]  304 	stb	,-s	;,
   01B6 8E 00 D6      [ 3]  305 	ldx	#LC8	;,
   01B9 C6 88         [ 2]  306 	ldb	#-120	;,
   01BB BD 00 00      [ 8]  307 	jsr	__Print_Str_d
   01BE 32 61         [ 5]  308 	leas	1,s	;,,
   01C0                     309 L17:
   01C0 32 62         [ 5]  310 	leas	2,s	;,,
   01C2 35 E0         [ 8]  311 	puls	y,u,pc	;
                            312 	.globl	_RepairIdentityGame
   01C4                     313 _RepairIdentityGame:
   01C4 32 7C         [ 5]  314 	leas	-4,s	;,,
                            315 ;----- asm -----
                            316 ; 144 "C:\Vectrex\WorkFolder\VectrexTest\FalloutTest\source\main.enr.c" 1
                            317 	; #ENR#[118]via_t1_cnt_lo = 0x40;
                            318 ;--- end asm ---
   01C6 C6 40         [ 2]  319 	ldb	#64	;,
   01C8 F7 00 00      [ 5]  320 	stb	_VIA_t1_cnt_lo	;, VIA_t1_cnt_lo
                            321 ;----- asm -----
                            322 ; 146 "C:\Vectrex\WorkFolder\VectrexTest\FalloutTest\source\main.enr.c" 1
                            323 	; #ENR#[119]moveto_d(cursor_x, cursor_y);
                            324 ;--- end asm ---
   01CB F6 00 01      [ 5]  325 	ldb	_cursor_y	;, cursor_y
   01CE E7 E4         [ 4]  326 	stb	,s	;, cursor_y.7
   01D0 F6 00 00      [ 5]  327 	ldb	_cursor_x	;, cursor_x
   01D3 E7 61         [ 5]  328 	stb	1,s	;, cursor_x.8
   01D5 E6 61         [ 5]  329 	ldb	1,s	;, cursor_x.8
   01D7 E7 63         [ 5]  330 	stb	3,s	;, a
   01D9 E6 E4         [ 4]  331 	ldb	,s	;, cursor_y.7
   01DB E7 62         [ 5]  332 	stb	2,s	;, b
   01DD E6 63         [ 5]  333 	ldb	3,s	;, a
   01DF E7 E2         [ 6]  334 	stb	,-s	;,
   01E1 E6 63         [ 5]  335 	ldb	3,s	;, b
   01E3 BD 00 00      [ 8]  336 	jsr	__Moveto_d
   01E6 32 61         [ 5]  337 	leas	1,s	;,,
                            338 ;----- asm -----
                            339 ; 148 "C:\Vectrex\WorkFolder\VectrexTest\FalloutTest\source\main.enr.c" 1
                            340 	; #ENR#[120]via_t1_cnt_lo = 0x80;
                            341 ;--- end asm ---
   01E8 C6 80         [ 2]  342 	ldb	#-128	;,
   01EA F7 00 00      [ 5]  343 	stb	_VIA_t1_cnt_lo	;, VIA_t1_cnt_lo
                            344 ;----- asm -----
                            345 ; 150 "C:\Vectrex\WorkFolder\VectrexTest\FalloutTest\source\main.enr.c" 1
                            346 	; #ENR#[121]draw_vlc((void*) mousepointer);
                            347 ;--- end asm ---
   01ED 8E 00 00      [ 3]  348 	ldx	#_MousePointer	;,
   01F0 BD 00 00      [ 8]  349 	jsr	___Draw_VLc
                            350 ;----- asm -----
                            351 ; 154 "C:\Vectrex\WorkFolder\VectrexTest\FalloutTest\source\main.enr.c" 1
                            352 	; #ENR#[124]if (joystick_1_x()>0)
                            353 ;--- end asm ---
   01F3 BD 02 69      [ 8]  354 	jsr	_joystick_1_x
   01F6 5D            [ 2]  355 	tstb	; D.3143
   01F7 2F 0A         [ 3]  356 	ble	L19	;
                            357 ;----- asm -----
                            358 ; 157 "C:\Vectrex\WorkFolder\VectrexTest\FalloutTest\source\main.enr.c" 1
                            359 	; #ENR#[126]cursor_y += 5;
                            360 ;--- end asm ---
   01F9 F6 00 01      [ 5]  361 	ldb	_cursor_y	; cursor_y.9, cursor_y
   01FC CB 05         [ 2]  362 	addb	#5	; cursor_y.10,
   01FE F7 00 01      [ 5]  363 	stb	_cursor_y	; cursor_y.10, cursor_y
   0201 20 0E         [ 3]  364 	bra	L20	;
   0203                     365 L19:
   0203 BD 02 69      [ 8]  366 	jsr	_joystick_1_x
   0206 5D            [ 2]  367 	tstb	; D.3146
   0207 2C 08         [ 3]  368 	bge	L20	;
                            369 ;----- asm -----
                            370 ; 162 "C:\Vectrex\WorkFolder\VectrexTest\FalloutTest\source\main.enr.c" 1
                            371 	; #ENR#[130]cursor_y -= 5;
                            372 ;--- end asm ---
   0209 F6 00 01      [ 5]  373 	ldb	_cursor_y	; cursor_y.11, cursor_y
   020C CB FB         [ 2]  374 	addb	#-5	; cursor_y.12,
   020E F7 00 01      [ 5]  375 	stb	_cursor_y	; cursor_y.12, cursor_y
   0211                     376 L20:
                            377 ;----- asm -----
                            378 ; 165 "C:\Vectrex\WorkFolder\VectrexTest\FalloutTest\source\main.enr.c" 1
                            379 	; #ENR#[132]if (joystick_1_y()>0)
                            380 ;--- end asm ---
   0211 BD 02 65      [ 8]  381 	jsr	_joystick_1_y
   0214 5D            [ 2]  382 	tstb	; D.3149
   0215 2F 0A         [ 3]  383 	ble	L21	;
                            384 ;----- asm -----
                            385 ; 168 "C:\Vectrex\WorkFolder\VectrexTest\FalloutTest\source\main.enr.c" 1
                            386 	; #ENR#[134]cursor_x += 5;
                            387 ;--- end asm ---
   0217 F6 00 00      [ 5]  388 	ldb	_cursor_x	; cursor_x.13, cursor_x
   021A CB 05         [ 2]  389 	addb	#5	; cursor_x.14,
   021C F7 00 00      [ 5]  390 	stb	_cursor_x	; cursor_x.14, cursor_x
   021F 20 0E         [ 3]  391 	bra	L22	;
   0221                     392 L21:
   0221 BD 02 65      [ 8]  393 	jsr	_joystick_1_y
   0224 5D            [ 2]  394 	tstb	; D.3152
   0225 2C 08         [ 3]  395 	bge	L22	;
                            396 ;----- asm -----
                            397 ; 173 "C:\Vectrex\WorkFolder\VectrexTest\FalloutTest\source\main.enr.c" 1
                            398 	; #ENR#[138]cursor_x -= 5;
                            399 ;--- end asm ---
   0227 F6 00 00      [ 5]  400 	ldb	_cursor_x	; cursor_x.15, cursor_x
   022A CB FB         [ 2]  401 	addb	#-5	; cursor_x.16,
   022C F7 00 00      [ 5]  402 	stb	_cursor_x	; cursor_x.16, cursor_x
   022F                     403 L22:
                            404 ;----- asm -----
                            405 ; 176 "C:\Vectrex\WorkFolder\VectrexTest\FalloutTest\source\main.enr.c" 1
                            406 	; #ENR#[140]if (cursor_x>=120) cursor_x = 120;
                            407 ;--- end asm ---
   022F F6 00 00      [ 5]  408 	ldb	_cursor_x	; cursor_x.17, cursor_x
   0232 C1 77         [ 2]  409 	cmpb	#119	;cmpqi:	; cursor_x.17,
   0234 2F 05         [ 3]  410 	ble	L23	;
   0236 C6 78         [ 2]  411 	ldb	#120	;,
   0238 F7 00 00      [ 5]  412 	stb	_cursor_x	;, cursor_x
   023B                     413 L23:
                            414 ;----- asm -----
                            415 ; 178 "C:\Vectrex\WorkFolder\VectrexTest\FalloutTest\source\main.enr.c" 1
                            416 	; #ENR#[141]if (cursor_x<=-120) cursor_x = -120;
                            417 ;--- end asm ---
   023B F6 00 00      [ 5]  418 	ldb	_cursor_x	; cursor_x.18, cursor_x
   023E C1 88         [ 2]  419 	cmpb	#-120	;cmpqi:	; cursor_x.18,
   0240 2E 05         [ 3]  420 	bgt	L24	;
   0242 C6 88         [ 2]  421 	ldb	#-120	;,
   0244 F7 00 00      [ 5]  422 	stb	_cursor_x	;, cursor_x
   0247                     423 L24:
                            424 ;----- asm -----
                            425 ; 180 "C:\Vectrex\WorkFolder\VectrexTest\FalloutTest\source\main.enr.c" 1
                            426 	; #ENR#[142]if (cursor_y>=120) cursor_y = 120;
                            427 ;--- end asm ---
   0247 F6 00 01      [ 5]  428 	ldb	_cursor_y	; cursor_y.19, cursor_y
   024A C1 77         [ 2]  429 	cmpb	#119	;cmpqi:	; cursor_y.19,
   024C 2F 05         [ 3]  430 	ble	L25	;
   024E C6 78         [ 2]  431 	ldb	#120	;,
   0250 F7 00 01      [ 5]  432 	stb	_cursor_y	;, cursor_y
   0253                     433 L25:
                            434 ;----- asm -----
                            435 ; 182 "C:\Vectrex\WorkFolder\VectrexTest\FalloutTest\source\main.enr.c" 1
                            436 	; #ENR#[143]if (cursor_y<=-120) cursor_y = -120;
                            437 ;--- end asm ---
   0253 F6 00 01      [ 5]  438 	ldb	_cursor_y	; cursor_y.20, cursor_y
   0256 C1 88         [ 2]  439 	cmpb	#-120	;cmpqi:	; cursor_y.20,
   0258 2E 05         [ 3]  440 	bgt	L26	;
   025A C6 88         [ 2]  441 	ldb	#-120	;,
   025C F7 00 01      [ 5]  442 	stb	_cursor_y	;, cursor_y
   025F                     443 L26:
                            444 ;----- asm -----
                            445 ; 184 "C:\Vectrex\WorkFolder\VectrexTest\FalloutTest\source\main.enr.c" 1
                            446 	; #ENR#[144]joy_digital();
                            447 ;--- end asm ---
   025F BD 00 00      [ 8]  448 	jsr	___Joy_Digital
   0262 32 64         [ 5]  449 	leas	4,s	;,,
   0264 39            [ 5]  450 	rts
   0265                     451 _joystick_1_y:
   0265 F6 00 00      [ 5]  452 	ldb	_Vec_Joy_1_Y	; D.3047, Vec_Joy_1_Y
   0268 39            [ 5]  453 	rts
   0269                     454 _joystick_1_x:
   0269 F6 00 00      [ 5]  455 	ldb	_Vec_Joy_1_X	; D.3043, Vec_Joy_1_X
   026C 39            [ 5]  456 	rts
   026D                     457 LC9:
   026D 43 4F 4E 46 49 52   458 	.byte	67,79,78,70,73,82,77,32
        4D 20
   0275 52 4F 55 54 49 4E   459 	.byte	82,79,85,84,73,78,69,32
        45 20
   027D 33 3F 80 00         460 	.byte	51,63,-128,0
                            461 	.globl	_main
   0281                     462 _main:
   0281 34 40         [ 6]  463 	pshs	u	;
   0283 32 7D         [ 5]  464 	leas	-3,s	;,,
                            465 ;----- asm -----
                            466 ; 193 "C:\Vectrex\WorkFolder\VectrexTest\FalloutTest\source\main.enr.c" 1
                            467 	; #ENR#[152]cursor_x = 0;
                            468 ;--- end asm ---
   0285 7F 00 00      [ 7]  469 	clr	_cursor_x	; cursor_x
                            470 ;----- asm -----
                            471 ; 195 "C:\Vectrex\WorkFolder\VectrexTest\FalloutTest\source\main.enr.c" 1
                            472 	; #ENR#[153]cursor_y = 0;
                            473 ;--- end asm ---
   0288 7F 00 01      [ 7]  474 	clr	_cursor_y	; cursor_y
                            475 ;----- asm -----
                            476 ; 197 "C:\Vectrex\WorkFolder\VectrexTest\FalloutTest\source\main.enr.c" 1
                            477 	; #ENR#[154]setup();
                            478 ;--- end asm ---
   028B BD 00 0B      [ 8]  479 	jsr	_setup
                            480 ;----- asm -----
                            481 ; 200 "C:\Vectrex\WorkFolder\VectrexTest\FalloutTest\source\main.enr.c" 1
                            482 	; #ENR#[156]gamestate = mainmenu;
                            483 ;--- end asm ---
   028E 7F 00 02      [ 7]  484 	clr	_gameState	; gameState
                            485 ;----- asm -----
                            486 ; 202 "C:\Vectrex\WorkFolder\VectrexTest\FalloutTest\source\main.enr.c" 1
                            487 	; #ENR#[157]exittext = false;
                            488 ;--- end asm ---
   0291 7F 00 00      [ 7]  489 	clr	_exitText	; exitText
                            490 ;----- asm -----
                            491 ; 204 "C:\Vectrex\WorkFolder\VectrexTest\FalloutTest\source\main.enr.c" 1
                            492 	; #ENR#[158]while(1)
                            493 ;--- end asm ---
   0294                     494 L45:
                            495 ;----- asm -----
                            496 ; 207 "C:\Vectrex\WorkFolder\VectrexTest\FalloutTest\source\main.enr.c" 1
                            497 	; #ENR#[160]read_btns();
                            498 ;--- end asm ---
   0294 BD 00 00      [ 8]  499 	jsr	___Read_Btns
                            500 ;----- asm -----
                            501 ; 210 "C:\Vectrex\WorkFolder\VectrexTest\FalloutTest\source\main.enr.c" 1
                            502 	; #ENR#[162]wait_recal();
                            503 ;--- end asm ---
   0297 BD 00 00      [ 8]  504 	jsr	___Wait_Recal
                            505 ;----- asm -----
                            506 ; 213 "C:\Vectrex\WorkFolder\VectrexTest\FalloutTest\source\main.enr.c" 1
                            507 	; #ENR#[164]frwait();
                            508 ;--- end asm ---
   029A BD 00 00      [ 8]  509 	jsr	___Wait_Recal
                            510 ;----- asm -----
                            511 ; 215 "C:\Vectrex\WorkFolder\VectrexTest\FalloutTest\source\main.enr.c" 1
                            512 	; #ENR#[165]intensity_a(0x5f);
                            513 ;--- end asm ---
   029D C6 5F         [ 2]  514 	ldb	#95	;,
   029F BD 00 00      [ 8]  515 	jsr	__Intensity_a
                            516 ;----- asm -----
                            517 ; 218 "C:\Vectrex\WorkFolder\VectrexTest\FalloutTest\source\main.enr.c" 1
                            518 	; #ENR#[167]switch(gamestate)
                            519 ;--- end asm ---
   02A2 F6 00 02      [ 5]  520 	ldb	_gameState	;, gameState
   02A5 E7 62         [ 5]  521 	stb	2,s	;, gameState.21
   02A7 E6 62         [ 5]  522 	ldb	2,s	;, gameState.21
   02A9 C1 04         [ 2]  523 	cmpb	#4	;cmpqi:	;,
   02AB 22 E7         [ 3]  524 	bhi	L45	;
   02AD E6 62         [ 5]  525 	ldb	2,s	;, gameState.21
   02AF 4F            [ 2]  526 	clra		;zero_extendqihi: R:b -> R:d	;,
   02B0 ED E4         [ 5]  527 	std	,s	;,
   02B2 EC E4         [ 5]  528 	ldd	,s	; tmp43,
   02B4 58            [ 2]  529 	aslb	;
   02B5 49            [ 2]  530 	rola	;
   02B6 CE 02 BF      [ 3]  531 	ldu	#L39	;,
   02B9 30 CB         [ 8]  532 	leax	d,u	; tmp44, tmp43,
   02BB AE 84         [ 5]  533 	ldx	,x	; tmp45,
   02BD 6E 84         [ 3]  534 	jmp	,x	; tmp45
   02BF                     535 L39:
   02BF 03 4C               536 	.word	L34
   02C1 02 C9               537 	.word	L35
   02C3 02 DA               538 	.word	L36
   02C5 02 EB               539 	.word	L37
   02C7 03 3B               540 	.word	L38
   02C9                     541 L35:
                            542 ;----- asm -----
                            543 ; 223 "C:\Vectrex\WorkFolder\VectrexTest\FalloutTest\source\main.enr.c" 1
                            544 	; #ENR#[170]print_str_d(-70, -120, );
                            545 ;--- end asm ---
   02C9 C6 BA         [ 2]  546 	ldb	#-70	;,
   02CB E7 E2         [ 6]  547 	stb	,-s	;,
   02CD 8E 00 A3      [ 3]  548 	ldx	#LC5	;,
   02D0 C6 88         [ 2]  549 	ldb	#-120	;,
   02D2 BD 00 00      [ 8]  550 	jsr	__Print_Str_d
   02D5 32 61         [ 5]  551 	leas	1,s	;,,
                            552 ;----- asm -----
                            553 ; 225 "C:\Vectrex\WorkFolder\VectrexTest\FalloutTest\source\main.enr.c" 1
                            554 	; #ENR#[171]break;
                            555 ;--- end asm ---
   02D7 16 FF BA      [ 5]  556 	lbra	L45	;
   02DA                     557 L36:
                            558 ;----- asm -----
                            559 ; 229 "C:\Vectrex\WorkFolder\VectrexTest\FalloutTest\source\main.enr.c" 1
                            560 	; #ENR#[173]print_str_d(-70, -120, );
                            561 ;--- end asm ---
   02DA C6 BA         [ 2]  562 	ldb	#-70	;,
   02DC E7 E2         [ 6]  563 	stb	,-s	;,
   02DE 8E 00 B7      [ 3]  564 	ldx	#LC6	;,
   02E1 C6 88         [ 2]  565 	ldb	#-120	;,
   02E3 BD 00 00      [ 8]  566 	jsr	__Print_Str_d
   02E6 32 61         [ 5]  567 	leas	1,s	;,,
                            568 ;----- asm -----
                            569 ; 231 "C:\Vectrex\WorkFolder\VectrexTest\FalloutTest\source\main.enr.c" 1
                            570 	; #ENR#[174]break;
                            571 ;--- end asm ---
   02E8 16 FF A9      [ 5]  572 	lbra	L45	;
   02EB                     573 L37:
                            574 ;----- asm -----
                            575 ; 235 "C:\Vectrex\WorkFolder\VectrexTest\FalloutTest\source\main.enr.c" 1
                            576 	; #ENR#[176]if (vec_buttons & 4 && !exittext){
                            577 ;--- end asm ---
   02EB F6 00 00      [ 5]  578 	ldb	_Vec_Buttons	; Vec_Buttons.22, Vec_Buttons
   02EE C4 04         [ 2]  579 	andb	#4	; D.3193,
   02F0 5D            [ 2]  580 	tstb	; D.3193
   02F1 27 0E         [ 3]  581 	beq	L40	;
   02F3 F6 00 00      [ 5]  582 	ldb	_exitText	; exitText.23, exitText
   02F6 5D            [ 2]  583 	tstb	; exitText.23
   02F7 26 08         [ 3]  584 	bne	L40	;
                            585 ;----- asm -----
                            586 ; 237 "C:\Vectrex\WorkFolder\VectrexTest\FalloutTest\source\main.enr.c" 1
                            587 	; #ENR#[177]exittext = true;
                            588 ;--- end asm ---
   02F9 C6 01         [ 2]  589 	ldb	#1	;,
   02FB F7 00 00      [ 5]  590 	stb	_exitText	;, exitText
   02FE 16 00 37      [ 5]  591 	lbra	L41	;
   0301                     592 L40:
   0301 F6 00 00      [ 5]  593 	ldb	_exitText	; exitText.24, exitText
   0304 5D            [ 2]  594 	tstb	; exitText.24
   0305 26 2E         [ 3]  595 	bne	L42	;
                            596 ;----- asm -----
                            597 ; 242 "C:\Vectrex\WorkFolder\VectrexTest\FalloutTest\source\main.enr.c" 1
                            598 	; #ENR#[181]print_str_d(-70, -120, );
                            599 ;--- end asm ---
   0307 C6 BA         [ 2]  600 	ldb	#-70	;,
   0309 E7 E2         [ 6]  601 	stb	,-s	;,
   030B 8E 02 6D      [ 3]  602 	ldx	#LC9	;,
   030E C6 88         [ 2]  603 	ldb	#-120	;,
   0310 BD 00 00      [ 8]  604 	jsr	__Print_Str_d
   0313 32 61         [ 5]  605 	leas	1,s	;,,
                            606 ;----- asm -----
                            607 ; 244 "C:\Vectrex\WorkFolder\VectrexTest\FalloutTest\source\main.enr.c" 1
                            608 	; #ENR#[182]if(vec_buttons & 1 || vec_buttons & 2 || vec_buttons & 8)
                            609 ;--- end asm ---
   0315 F6 00 00      [ 5]  610 	ldb	_Vec_Buttons	; Vec_Buttons.25, Vec_Buttons
   0318 C4 01         [ 2]  611 	andb	#1	; D.3200,
   031A 5D            [ 2]  612 	tstb	; D.3201
   031B 26 10         [ 3]  613 	bne	L43	;
   031D F6 00 00      [ 5]  614 	ldb	_Vec_Buttons	; Vec_Buttons.27, Vec_Buttons
   0320 C4 02         [ 2]  615 	andb	#2	; D.3203,
   0322 5D            [ 2]  616 	tstb	; D.3203
   0323 26 08         [ 3]  617 	bne	L43	;
   0325 F6 00 00      [ 5]  618 	ldb	_Vec_Buttons	; Vec_Buttons.28, Vec_Buttons
   0328 C4 08         [ 2]  619 	andb	#8	; D.3205,
   032A 5D            [ 2]  620 	tstb	; D.3205
   032B 27 0B         [ 3]  621 	beq	L41	;
   032D                     622 L43:
                            623 ;----- asm -----
                            624 ; 247 "C:\Vectrex\WorkFolder\VectrexTest\FalloutTest\source\main.enr.c" 1
                            625 	; #ENR#[184]gamestate = mainmenu;
                            626 ;--- end asm ---
   032D 7F 00 02      [ 7]  627 	clr	_gameState	; gameState
                            628 ;----- asm -----
                            629 ; 249 "C:\Vectrex\WorkFolder\VectrexTest\FalloutTest\source\main.enr.c" 1
                            630 	; #ENR#[185]exittext = false;
                            631 ;--- end asm ---
   0330 7F 00 00      [ 7]  632 	clr	_exitText	; exitText
   0333 20 03         [ 3]  633 	bra	L41	;
   0335                     634 L42:
                            635 ;----- asm -----
                            636 ; 256 "C:\Vectrex\WorkFolder\VectrexTest\FalloutTest\source\main.enr.c" 1
                            637 	; #ENR#[191]repairidentitygame();
                            638 ;--- end asm ---
   0335 BD 01 C4      [ 8]  639 	jsr	_RepairIdentityGame
   0338                     640 L41:
                            641 ;----- asm -----
                            642 ; 259 "C:\Vectrex\WorkFolder\VectrexTest\FalloutTest\source\main.enr.c" 1
                            643 	; #ENR#[193]break;
                            644 ;--- end asm ---
   0338 16 FF 59      [ 5]  645 	lbra	L45	;
   033B                     646 L38:
                            647 ;----- asm -----
                            648 ; 264 "C:\Vectrex\WorkFolder\VectrexTest\FalloutTest\source\main.enr.c" 1
                            649 	; #ENR#[196]print_str_d(-70, -120, );
                            650 ;--- end asm ---
   033B C6 BA         [ 2]  651 	ldb	#-70	;,
   033D E7 E2         [ 6]  652 	stb	,-s	;,
   033F 8E 00 D6      [ 3]  653 	ldx	#LC8	;,
   0342 C6 88         [ 2]  654 	ldb	#-120	;,
   0344 BD 00 00      [ 8]  655 	jsr	__Print_Str_d
   0347 32 61         [ 5]  656 	leas	1,s	;,,
                            657 ;----- asm -----
                            658 ; 266 "C:\Vectrex\WorkFolder\VectrexTest\FalloutTest\source\main.enr.c" 1
                            659 	; #ENR#[197]break;
                            660 ;--- end asm ---
   0349 16 FF 48      [ 5]  661 	lbra	L45	;
   034C                     662 L34:
                            663 ;----- asm -----
                            664 ; 270 "C:\Vectrex\WorkFolder\VectrexTest\FalloutTest\source\main.enr.c" 1
                            665 	; #ENR#[199]mainmenu();
                            666 ;--- end asm ---
   034C BD 00 E7      [ 8]  667 	jsr	_mainMenu
                            668 ;----- asm -----
                            669 ; 272 "C:\Vectrex\WorkFolder\VectrexTest\FalloutTest\source\main.enr.c" 1
                            670 	; #ENR#[200]break;
                            671 ;--- end asm ---
   034F 16 FF 42      [ 5]  672 	lbra	L45	;
                            673 	.area	.bss
                            674 	.globl	_cursor_x
   0000                     675 _cursor_x:	.blkb	1
                            676 	.globl	_cursor_y
   0001                     677 _cursor_y:	.blkb	1
                            678 	.globl	_gameState
   0002                     679 _gameState:	.blkb	1
ASxxxx Assembler V05.00  (Motorola 6809), page 1.
Hexidecimal [16-Bits]

Symbol Table

    .__.$$$.       =   2710 L   |     .__.ABS.       =   0000 G
    .__.CPU.       =   0000 L   |     .__.H$L.       =   0001 L
  2 A$main$132         00E7 GR  |   2 A$main$133         00E9 GR
  2 A$main$138         00EB GR  |   2 A$main$139         00ED GR
  2 A$main$140         00EF GR  |   2 A$main$141         00F2 GR
  2 A$main$142         00F4 GR  |   2 A$main$143         00F7 GR
  2 A$main$148         00F9 GR  |   2 A$main$149         00FB GR
  2 A$main$150         00FD GR  |   2 A$main$151         0100 GR
  2 A$main$152         0102 GR  |   2 A$main$153         0105 GR
  2 A$main$158         0107 GR  |   2 A$main$159         0109 GR
  2 A$main$160         010B GR  |   2 A$main$161         010E GR
  2 A$main$162         0110 GR  |   2 A$main$163         0113 GR
  2 A$main$168         0115 GR  |   2 A$main$169         0117 GR
  2 A$main$170         0119 GR  |   2 A$main$171         011C GR
  2 A$main$172         011E GR  |   2 A$main$173         0121 GR
  2 A$main$178         0123 GR  |   2 A$main$179         0125 GR
  2 A$main$180         0127 GR  |   2 A$main$181         012A GR
  2 A$main$182         012C GR  |   2 A$main$183         012F GR
  2 A$main$188         0131 GR  |   2 A$main$193         0134 GR
  2 A$main$194         0137 GR  |   2 A$main$195         013A GR
  2 A$main$200         013C GR  |   2 A$main$201         013F GR
  2 A$main$204         0141 GR  |   2 A$main$205         0143 GR
  2 A$main$213         0146 GR  |   2 A$main$218         0149 GR
  2 A$main$223         014C GR  |   2 A$main$224         014F GR
  2 A$main$225         0151 GR  |   2 A$main$226         0152 GR
  2 A$main$231         0154 GR  |   2 A$main$232         0156 GR
  2 A$main$237         0159 GR  |   2 A$main$238         015B GR
  2 A$main$239         015D GR  |   2 A$main$240         0160 GR
  2 A$main$241         0162 GR  |   2 A$main$242         0165 GR
  2 A$main$243         0167 GR  |   2 A$main$245         016A GR
  2 A$main$246         016D GR  |   2 A$main$247         016F GR
  2 A$main$248         0170 GR  |   2 A$main$253         0172 GR
  2 A$main$254         0174 GR  |   2 A$main$259         0177 GR
  2 A$main$260         0179 GR  |   2 A$main$261         017B GR
  2 A$main$262         017E GR  |   2 A$main$263         0180 GR
  2 A$main$264         0183 GR  |   2 A$main$265         0185 GR
  2 A$main$267         0188 GR  |   2 A$main$268         018B GR
  2 A$main$269         018D GR  |   2 A$main$270         018E GR
  2 A$main$275         0190 GR  |   2 A$main$276         0192 GR
  2 A$main$281         0195 GR  |   2 A$main$282         0197 GR
  2 A$main$283         0199 GR  |   2 A$main$284         019C GR
  2 A$main$285         019E GR  |   2 A$main$286         01A1 GR
  2 A$main$287         01A3 GR  |   2 A$main$289         01A5 GR
  2 A$main$290         01A8 GR  |   2 A$main$291         01AA GR
  2 A$main$292         01AB GR  |   2 A$main$297         01AD GR
  2 A$main$298         01AF GR  |   2 A$main$303         01B2 GR
  2 A$main$304         01B4 GR  |   2 A$main$305         01B6 GR
  2 A$main$306         01B9 GR  |   2 A$main$307         01BB GR
  2 A$main$308         01BE GR  |   2 A$main$310         01C0 GR
  2 A$main$311         01C2 GR  |   2 A$main$314         01C4 GR
  2 A$main$319         01C6 GR  |   2 A$main$320         01C8 GR
  2 A$main$325         01CB GR  |   2 A$main$326         01CE GR
  2 A$main$327         01D0 GR  |   2 A$main$328         01D3 GR
  2 A$main$329         01D5 GR  |   2 A$main$330         01D7 GR
  2 A$main$331         01D9 GR  |   2 A$main$332         01DB GR
  2 A$main$333         01DD GR  |   2 A$main$334         01DF GR
  2 A$main$335         01E1 GR  |   2 A$main$336         01E3 GR
  2 A$main$337         01E6 GR  |   2 A$main$342         01E8 GR
  2 A$main$343         01EA GR  |   2 A$main$348         01ED GR
  2 A$main$349         01F0 GR  |   2 A$main$354         01F3 GR
  2 A$main$355         01F6 GR  |   2 A$main$356         01F7 GR
  2 A$main$361         01F9 GR  |   2 A$main$362         01FC GR
  2 A$main$363         01FE GR  |   2 A$main$364         0201 GR
  2 A$main$366         0203 GR  |   2 A$main$367         0206 GR
  2 A$main$368         0207 GR  |   2 A$main$373         0209 GR
  2 A$main$374         020C GR  |   2 A$main$375         020E GR
  2 A$main$381         0211 GR  |   2 A$main$382         0214 GR
  2 A$main$383         0215 GR  |   2 A$main$388         0217 GR
  2 A$main$389         021A GR  |   2 A$main$390         021C GR
  2 A$main$391         021F GR  |   2 A$main$393         0221 GR
  2 A$main$394         0224 GR  |   2 A$main$395         0225 GR
  2 A$main$400         0227 GR  |   2 A$main$401         022A GR
  2 A$main$402         022C GR  |   2 A$main$408         022F GR
  2 A$main$409         0232 GR  |   2 A$main$410         0234 GR
  2 A$main$411         0236 GR  |   2 A$main$412         0238 GR
  2 A$main$418         023B GR  |   2 A$main$419         023E GR
  2 A$main$420         0240 GR  |   2 A$main$421         0242 GR
  2 A$main$422         0244 GR  |   2 A$main$428         0247 GR
  2 A$main$429         024A GR  |   2 A$main$430         024C GR
  2 A$main$431         024E GR  |   2 A$main$432         0250 GR
  2 A$main$438         0253 GR  |   2 A$main$439         0256 GR
  2 A$main$440         0258 GR  |   2 A$main$441         025A GR
  2 A$main$442         025C GR  |   2 A$main$448         025F GR
  2 A$main$449         0262 GR  |   2 A$main$450         0264 GR
  2 A$main$452         0265 GR  |   2 A$main$453         0268 GR
  2 A$main$455         0269 GR  |   2 A$main$456         026C GR
  2 A$main$463         0281 GR  |   2 A$main$464         0283 GR
  2 A$main$469         0285 GR  |   2 A$main$474         0288 GR
  2 A$main$479         028B GR  |   2 A$main$484         028E GR
  2 A$main$489         0291 GR  |   2 A$main$499         0294 GR
  2 A$main$504         0297 GR  |   2 A$main$509         029A GR
  2 A$main$514         029D GR  |   2 A$main$515         029F GR
  2 A$main$520         02A2 GR  |   2 A$main$521         02A5 GR
  2 A$main$522         02A7 GR  |   2 A$main$523         02A9 GR
  2 A$main$524         02AB GR  |   2 A$main$525         02AD GR
  2 A$main$526         02AF GR  |   2 A$main$527         02B0 GR
  2 A$main$528         02B2 GR  |   2 A$main$529         02B4 GR
  2 A$main$530         02B5 GR  |   2 A$main$531         02B6 GR
  2 A$main$532         02B9 GR  |   2 A$main$533         02BB GR
  2 A$main$534         02BD GR  |   2 A$main$546         02C9 GR
  2 A$main$547         02CB GR  |   2 A$main$548         02CD GR
  2 A$main$549         02D0 GR  |   2 A$main$55          000B GR
  2 A$main$550         02D2 GR  |   2 A$main$551         02D5 GR
  2 A$main$556         02D7 GR  |   2 A$main$562         02DA GR
  2 A$main$563         02DC GR  |   2 A$main$564         02DE GR
  2 A$main$565         02E1 GR  |   2 A$main$566         02E3 GR
  2 A$main$567         02E6 GR  |   2 A$main$572         02E8 GR
  2 A$main$578         02EB GR  |   2 A$main$579         02EE GR
  2 A$main$580         02F0 GR  |   2 A$main$581         02F1 GR
  2 A$main$582         02F3 GR  |   2 A$main$583         02F6 GR
  2 A$main$584         02F7 GR  |   2 A$main$589         02F9 GR
  2 A$main$590         02FB GR  |   2 A$main$591         02FE GR
  2 A$main$593         0301 GR  |   2 A$main$594         0304 GR
  2 A$main$595         0305 GR  |   2 A$main$60          000E GR
  2 A$main$600         0307 GR  |   2 A$main$601         0309 GR
  2 A$main$602         030B GR  |   2 A$main$603         030E GR
  2 A$main$604         0310 GR  |   2 A$main$605         0313 GR
  2 A$main$610         0315 GR  |   2 A$main$611         0318 GR
  2 A$main$612         031A GR  |   2 A$main$613         031B GR
  2 A$main$614         031D GR  |   2 A$main$615         0320 GR
  2 A$main$616         0322 GR  |   2 A$main$617         0323 GR
  2 A$main$618         0325 GR  |   2 A$main$619         0328 GR
  2 A$main$620         032A GR  |   2 A$main$621         032B GR
  2 A$main$627         032D GR  |   2 A$main$632         0330 GR
  2 A$main$633         0333 GR  |   2 A$main$639         0335 GR
  2 A$main$645         0338 GR  |   2 A$main$65          0011 GR
  2 A$main$651         033B GR  |   2 A$main$652         033D GR
  2 A$main$653         033F GR  |   2 A$main$654         0342 GR
  2 A$main$655         0344 GR  |   2 A$main$656         0347 GR
  2 A$main$661         0349 GR  |   2 A$main$667         034C GR
  2 A$main$672         034F GR  |   2 A$main$70          0014 GR
  2 A$main$75          0017 GR  |   2 A$main$80          001A GR
  2 A$main$81          001D GR  |   2 A$main$83          001E GR
  2 A$main$84          0021 GR  |   2 A$main$86          0022 GR
  2 A$main$87          0025 GR  |   2 A$main$89          0026 GR
  2 A$main$90          0028 GR  |   2 A$main$91          002B GR
  2 A$main$93          002C GR  |   2 A$main$94          002E GR
  2 A$main$95          0031 GR  |   2 L12                0146 R
  2 L13                016A R   |   2 L15                0188 R
  2 L16                01A5 R   |   2 L17                01C0 R
  2 L19                0203 R   |   2 L20                0211 R
  2 L21                0221 R   |   2 L22                022F R
  2 L23                023B R   |   2 L24                0247 R
  2 L25                0253 R   |   2 L26                025F R
  2 L34                034C R   |   2 L35                02C9 R
  2 L36                02DA R   |   2 L37                02EB R
  2 L38                033B R   |   2 L39                02BF R
  2 L40                0301 R   |   2 L41                0338 R
  2 L42                0335 R   |   2 L43                032D R
  2 L45                0294 R   |   2 LC0                0032 R
  2 LC1                0045 R   |   2 LC2                005D R
  2 LC3                0073 R   |   2 LC4                008B R
  2 LC5                00A3 R   |   2 LC6                00B7 R
  2 LC7                00C7 R   |   2 LC8                00D6 R
  2 LC9                026D R   |     _ANbass_data       **** GX
  2 _MousePointer      0000 GR  |   2 _RepairIdentit     01C4 GR
    _VIA_t1_cnt_lo     **** GX  |     _Vec_Buttons       **** GX
    _Vec_Joy_1_X       **** GX  |     _Vec_Joy_1_Y       **** GX
    _Vec_Joy_Mux_1     **** GX  |     _Vec_Joy_Mux_1     **** GX
    _Vec_Joy_Mux_2     **** GX  |     _Vec_Joy_Mux_2     **** GX
    __Do_Sound         **** GX  |     __Intensity_a      **** GX
    __Moveto_d         **** GX  |     __Print_Str_d      **** GX
    ___Draw_VLc        **** GX  |     ___Joy_Digital     **** GX
    ___Read_Btns       **** GX  |     ___Wait_Recal      **** GX
  4 _cursor_x          0000 GR  |   4 _cursor_y          0001 GR
  2 _disable_contr     0022 R   |   2 _disable_contr     001E R
  2 _enable_contro     002C R   |   2 _enable_contro     0026 R
  3 _exitText          0000 GR  |   4 _gameState         0002 GR
  2 _joystick_1_x      0269 R   |   2 _joystick_1_y      0265 R
  2 _main              0281 GR  |   2 _mainMenu          00E7 GR
  2 _setup             000B GR  |     _ym_data_curre     **** GX
    do_ym_sound        **** GX  |     init_ym_sound      **** GX

ASxxxx Assembler V05.00  (Motorola 6809), page 2.
Hexidecimal [16-Bits]

Area Table

[_CSEG]
   0 _CODE            size    0   flags C080
   2 .text            size  352   flags  100
   3 .data            size    1   flags  100
   4 .bss             size    3   flags    0
[_DSEG]
   1 _DATA            size    0   flags C0C0

