                              1 ;;; gcc for m6809 : Mar 17 2019 12:45:32
                              2 ;;; 4.3.6 (gcc6809)
                              3 ;;; ABI version 1
                              4 ;;; -mabi=bx -mint8 -fomit-frame-pointer -O0
                              5 	.module	main.enr.c
                              6 ; GNU C (GCC) version 4.3.6 (gcc6809) (m6809-unknown-none)
                              7 ;	compiled by GNU C version 7.4.0, GMP version 4.3.2, MPFR version 2.4.2.
                              8 ; GGC heuristics: --param ggc-min-expand=100 --param ggc-min-heapsize=131072
                              9 ; options passed:  -fno-ipa-reference -ftree-ter -fno-gcse -fverbose-asm -W
                             10 ; -Wall -Wextra -Wconversion -Werror -fomit-frame-pointer
                             11 ; -fno-toplevel-reorder -mint8 -msoft-reg-count=0 -std=gnu99
                             12 ; -fno-time-report
                             13 ; -IC:\Users\tsuok\Downloads\Vide2.6_RC03.w32\Vide.w32\C\PeerC\vectrex\include
                             14 ; -D__RUM_FUNCTION=1 -DOMMIT_FRAMEPOINTER=1
                             15 ; -IC:\Users\tsuok\FalloutTTRPG\FishGame\FishGame\include
                             16 ; C:\Users\tsuok\FalloutTTRPG\FishGame\FishGame\source\main.enr.c
                             17 ; options enabled:  -falign-loops -fargument-alias -fauto-inc-dec
                             18 ; -fbranch-count-reg -fcommon -fearly-inlining
                             19 ; -feliminate-unused-debug-types -ffunction-cse -fgcse-lm -fident -fivopts
                             20 ; -fkeep-static-consts -fleading-underscore -fmath-errno
                             21 ; -fmerge-debug-strings -fmove-loop-invariants -fomit-frame-pointer
                             22 ; -fpcc-struct-return -fpeephole -fsched-interblock -fsched-spec
                             23 ; -fsched-stalled-insns-dep -fsigned-zeros -fsplit-ivs-in-unroller
                             24 ; -ftrapping-math -ftree-loop-im -ftree-loop-ivcanon -ftree-loop-optimize
                             25 ; -ftree-parallelize-loops= -ftree-reassoc -ftree-scev-cprop -ftree-ter
                             26 ; -ftree-vect-loop-version -fverbose-asm -fzero-initialized-in-bss
                             27 
                             28 ; Compiler executable checksum: 8f282e2d9663ae6148257c524e608c63
                             29 
                             30 	.globl	_drawScaleScreen
                             31 	.area	.text
   0000                      32 _drawScaleScreen:
   0000 FF                   33 	.byte	-1
                             34 	.globl	_MousePointer
   0001                      35 _MousePointer:
   0001 0C                   36 	.byte	12
   0002 F9                   37 	.byte	-7
   0003 08                   38 	.byte	8
   0004 02                   39 	.byte	2
   0005 FB                   40 	.byte	-5
   0006 F8                   41 	.byte	-8
   0007 00                   42 	.byte	0
   0008 FA                   43 	.byte	-6
   0009 07                   44 	.byte	7
   000A 07                   45 	.byte	7
   000B 08                   46 	.byte	8
   000C 1C                   47 	.byte	28
   000D 00                   48 	.byte	0
   000E 02                   49 	.byte	2
   000F FC                   50 	.byte	-4
   0010 04                   51 	.byte	4
   0011 04                   52 	.byte	4
   0012 FC                   53 	.byte	-4
   0013 04                   54 	.byte	4
   0014 E1                   55 	.byte	-31
   0015 00                   56 	.byte	0
   0016 F7                   57 	.byte	-9
   0017 F4                   58 	.byte	-12
   0018 09                   59 	.byte	9
   0019 F6                   60 	.byte	-10
   001A 0D                   61 	.byte	13
   001B 00                   62 	.byte	0
                             63 	.globl	_AnotherWave
   001C                      64 _AnotherWave:
   001C 0D                   65 	.byte	13
   001D E6                   66 	.byte	-26
   001E 18                   67 	.byte	24
   001F 30                   68 	.byte	48
   0020 33                   69 	.byte	51
   0021 D0                   70 	.byte	-48
   0022 30                   71 	.byte	48
   0023 30                   72 	.byte	48
   0024 33                   73 	.byte	51
   0025 D2                   74 	.byte	-46
   0026 30                   75 	.byte	48
   0027 2E                   76 	.byte	46
   0028 33                   77 	.byte	51
   0029 D2                   78 	.byte	-46
   002A 30                   79 	.byte	48
   002B 2E                   80 	.byte	46
   002C 33                   81 	.byte	51
   002D D2                   82 	.byte	-46
   002E 30                   83 	.byte	48
   002F 2E                   84 	.byte	46
   0030 33                   85 	.byte	51
   0031 D2                   86 	.byte	-46
   0032 30                   87 	.byte	48
   0033 2E                   88 	.byte	46
   0034 33                   89 	.byte	51
   0035 D0                   90 	.byte	-48
   0036 30                   91 	.byte	48
   0037 18                   92 	.byte	24
   0038 1A                   93 	.byte	26
                             94 	.globl	_setup
   0039                      95 _setup:
                             96 ;----- asm -----
                             97 ; 127 "C:\Users\tsuok\FalloutTTRPG\FishGame\FishGame\source\main.enr.c" 1
                             98 	; #ENR#[126]enable_controller_1_x();
                             99 ;--- end asm ---
   0039 BD 00 5A      [ 8]  100 	jsr	_enable_controller_1_x
                            101 ;----- asm -----
                            102 ; 129 "C:\Users\tsuok\FalloutTTRPG\FishGame\FishGame\source\main.enr.c" 1
                            103 	; #ENR#[127]enable_controller_1_y();
                            104 ;--- end asm ---
   003C BD 00 54      [ 8]  105 	jsr	_enable_controller_1_y
                            106 ;----- asm -----
                            107 ; 131 "C:\Users\tsuok\FalloutTTRPG\FishGame\FishGame\source\main.enr.c" 1
                            108 	; #ENR#[128]disable_controller_2_x();
                            109 ;--- end asm ---
   003F BD 00 50      [ 8]  110 	jsr	_disable_controller_2_x
                            111 ;----- asm -----
                            112 ; 133 "C:\Users\tsuok\FalloutTTRPG\FishGame\FishGame\source\main.enr.c" 1
                            113 	; #ENR#[129]disable_controller_2_y();
                            114 ;--- end asm ---
   0042 BD 00 4C      [ 8]  115 	jsr	_disable_controller_2_y
                            116 ;----- asm -----
                            117 ; 135 "C:\Users\tsuok\FalloutTTRPG\FishGame\FishGame\source\main.enr.c" 1
                            118 	; #ENR#[130]joy_digital();
                            119 ;--- end asm ---
   0045 BD 00 00      [ 8]  120 	jsr	___Joy_Digital
                            121 ;----- asm -----
                            122 ; 138 "C:\Users\tsuok\FalloutTTRPG\FishGame\FishGame\source\main.enr.c" 1
                            123 	; #ENR#[132]wait_recal();
                            124 ;--- end asm ---
   0048 BD 00 00      [ 8]  125 	jsr	___Wait_Recal
   004B 39            [ 5]  126 	rts
   004C                     127 _disable_controller_2_y:
   004C 7F 00 00      [ 7]  128 	clr	_Vec_Joy_Mux_2_Y	; Vec_Joy_Mux_2_Y
   004F 39            [ 5]  129 	rts
   0050                     130 _disable_controller_2_x:
   0050 7F 00 00      [ 7]  131 	clr	_Vec_Joy_Mux_2_X	; Vec_Joy_Mux_2_X
   0053 39            [ 5]  132 	rts
   0054                     133 _enable_controller_1_y:
   0054 C6 03         [ 2]  134 	ldb	#3	;,
   0056 F7 00 00      [ 5]  135 	stb	_Vec_Joy_Mux_1_Y	;, Vec_Joy_Mux_1_Y
   0059 39            [ 5]  136 	rts
   005A                     137 _enable_controller_1_x:
   005A C6 01         [ 2]  138 	ldb	#1	;,
   005C F7 00 00      [ 5]  139 	stb	_Vec_Joy_Mux_1_X	;, Vec_Joy_Mux_1_X
   005F 39            [ 5]  140 	rts
                            141 	.globl	_drawSpriteWithScaleAtPos
   0060                     142 _drawSpriteWithScaleAtPos:
   0060 32 79         [ 5]  143 	leas	-7,s	;,,
   0062 AF 61         [ 6]  144 	stx	1,s	; sprite, sprite
   0064 E7 E4         [ 4]  145 	stb	,s	; drawScale, drawScale
                            146 ;----- asm -----
                            147 ; 146 "C:\Users\tsuok\FalloutTTRPG\FishGame\FishGame\source\main.enr.c" 1
                            148 	; #ENR#[139]reset0ref();
                            149 ;--- end asm ---
   0066 BD 00 00      [ 8]  150 	jsr	___Reset0Ref
                            151 ;----- asm -----
                            152 ; 149 "C:\Users\tsuok\FalloutTTRPG\FishGame\FishGame\source\main.enr.c" 1
                            153 	; #ENR#[141]via_t1_cnt_lo = drawscalescreen;
                            154 ;--- end asm ---
   0069 F6 00 00      [ 5]  155 	ldb	_drawScaleScreen	; drawScaleScreen.1, drawScaleScreen
   006C F7 00 00      [ 5]  156 	stb	_VIA_t1_cnt_lo	; drawScaleScreen.1, VIA_t1_cnt_lo
                            157 ;----- asm -----
                            158 ; 151 "C:\Users\tsuok\FalloutTTRPG\FishGame\FishGame\source\main.enr.c" 1
                            159 	; #ENR#[142]moveto_d(ypos, xpos);
                            160 ;--- end asm ---
   006F E6 6A         [ 5]  161 	ldb	10,s	;, yPos
   0071 E7 64         [ 5]  162 	stb	4,s	;, a
   0073 E6 69         [ 5]  163 	ldb	9,s	;, xPos
   0075 E7 63         [ 5]  164 	stb	3,s	;, b
   0077 E6 64         [ 5]  165 	ldb	4,s	;, a
   0079 E7 E2         [ 6]  166 	stb	,-s	;,
   007B E6 64         [ 5]  167 	ldb	4,s	;, b
   007D BD 00 00      [ 8]  168 	jsr	__Moveto_d
   0080 32 61         [ 5]  169 	leas	1,s	;,,
                            170 ;----- asm -----
                            171 ; 154 "C:\Users\tsuok\FalloutTTRPG\FishGame\FishGame\source\main.enr.c" 1
                            172 	; #ENR#[144]via_t1_cnt_lo = drawscale;
                            173 ;--- end asm ---
   0082 E6 E4         [ 4]  174 	ldb	,s	;, drawScale
   0084 F7 00 00      [ 5]  175 	stb	_VIA_t1_cnt_lo	;, VIA_t1_cnt_lo
                            176 ;----- asm -----
                            177 ; 157 "C:\Users\tsuok\FalloutTTRPG\FishGame\FishGame\source\main.enr.c" 1
                            178 	; #ENR#[146]draw_vlp((void*) sprite);
                            179 ;--- end asm ---
   0087 AE 61         [ 6]  180 	ldx	1,s	; tmp28, sprite
   0089 AF 65         [ 6]  181 	stx	5,s	; tmp28, x
   008B AE 65         [ 6]  182 	ldx	5,s	;, x
   008D BD 00 00      [ 8]  183 	jsr	___Draw_VLp
   0090 32 67         [ 5]  184 	leas	7,s	;,,
   0092 39            [ 5]  185 	rts
                            186 	.globl	_movehook
   0093                     187 _movehook:
                            188 ;----- asm -----
                            189 ; 503 "C:\Users\tsuok\FalloutTTRPG\FishGame\FishGame\source\main.enr.c" 1
                            190 	; #ENR#[366]if (joystick_1_x()>0)
                            191 ;--- end asm ---
   0093 BD 01 07      [ 8]  192 	jsr	_joystick_1_x
   0096 5D            [ 2]  193 	tstb	; D.3254
   0097 2F 0A         [ 3]  194 	ble	L14	;
                            195 ;----- asm -----
                            196 ; 506 "C:\Users\tsuok\FalloutTTRPG\FishGame\FishGame\source\main.enr.c" 1
                            197 	; #ENR#[368]hook_y += 5;
                            198 ;--- end asm ---
   0099 F6 00 01      [ 5]  199 	ldb	_hook_y	; hook_y.7, hook_y
   009C CB 05         [ 2]  200 	addb	#5	; hook_y.8,
   009E F7 00 01      [ 5]  201 	stb	_hook_y	; hook_y.8, hook_y
   00A1 20 0E         [ 3]  202 	bra	L15	;
   00A3                     203 L14:
   00A3 BD 01 07      [ 8]  204 	jsr	_joystick_1_x
   00A6 5D            [ 2]  205 	tstb	; D.3257
   00A7 2C 08         [ 3]  206 	bge	L15	;
                            207 ;----- asm -----
                            208 ; 511 "C:\Users\tsuok\FalloutTTRPG\FishGame\FishGame\source\main.enr.c" 1
                            209 	; #ENR#[372]hook_y -= 5;
                            210 ;--- end asm ---
   00A9 F6 00 01      [ 5]  211 	ldb	_hook_y	; hook_y.9, hook_y
   00AC CB FB         [ 2]  212 	addb	#-5	; hook_y.10,
   00AE F7 00 01      [ 5]  213 	stb	_hook_y	; hook_y.10, hook_y
   00B1                     214 L15:
                            215 ;----- asm -----
                            216 ; 514 "C:\Users\tsuok\FalloutTTRPG\FishGame\FishGame\source\main.enr.c" 1
                            217 	; #ENR#[374]if (joystick_1_y()>0)
                            218 ;--- end asm ---
   00B1 BD 01 03      [ 8]  219 	jsr	_joystick_1_y
   00B4 5D            [ 2]  220 	tstb	; D.3260
   00B5 2F 0A         [ 3]  221 	ble	L16	;
                            222 ;----- asm -----
                            223 ; 517 "C:\Users\tsuok\FalloutTTRPG\FishGame\FishGame\source\main.enr.c" 1
                            224 	; #ENR#[376]hook_x += 5;
                            225 ;--- end asm ---
   00B7 F6 00 00      [ 5]  226 	ldb	_hook_x	; hook_x.11, hook_x
   00BA CB 05         [ 2]  227 	addb	#5	; hook_x.12,
   00BC F7 00 00      [ 5]  228 	stb	_hook_x	; hook_x.12, hook_x
   00BF 20 0E         [ 3]  229 	bra	L17	;
   00C1                     230 L16:
   00C1 BD 01 03      [ 8]  231 	jsr	_joystick_1_y
   00C4 5D            [ 2]  232 	tstb	; D.3263
   00C5 2C 08         [ 3]  233 	bge	L17	;
                            234 ;----- asm -----
                            235 ; 522 "C:\Users\tsuok\FalloutTTRPG\FishGame\FishGame\source\main.enr.c" 1
                            236 	; #ENR#[380]hook_x -= 5;
                            237 ;--- end asm ---
   00C7 F6 00 00      [ 5]  238 	ldb	_hook_x	; hook_x.13, hook_x
   00CA CB FB         [ 2]  239 	addb	#-5	; hook_x.14,
   00CC F7 00 00      [ 5]  240 	stb	_hook_x	; hook_x.14, hook_x
   00CF                     241 L17:
                            242 ;----- asm -----
                            243 ; 525 "C:\Users\tsuok\FalloutTTRPG\FishGame\FishGame\source\main.enr.c" 1
                            244 	; #ENR#[382]if (hook_x>=120) hook_x = 120;
                            245 ;--- end asm ---
   00CF F6 00 00      [ 5]  246 	ldb	_hook_x	; hook_x.15, hook_x
   00D2 C1 77         [ 2]  247 	cmpb	#119	;cmpqi:	; hook_x.15,
   00D4 2F 05         [ 3]  248 	ble	L18	;
   00D6 C6 78         [ 2]  249 	ldb	#120	;,
   00D8 F7 00 00      [ 5]  250 	stb	_hook_x	;, hook_x
   00DB                     251 L18:
                            252 ;----- asm -----
                            253 ; 527 "C:\Users\tsuok\FalloutTTRPG\FishGame\FishGame\source\main.enr.c" 1
                            254 	; #ENR#[383]if (hook_x<=-120) hook_x = -120;
                            255 ;--- end asm ---
   00DB F6 00 00      [ 5]  256 	ldb	_hook_x	; hook_x.16, hook_x
   00DE C1 88         [ 2]  257 	cmpb	#-120	;cmpqi:	; hook_x.16,
   00E0 2E 05         [ 3]  258 	bgt	L19	;
   00E2 C6 88         [ 2]  259 	ldb	#-120	;,
   00E4 F7 00 00      [ 5]  260 	stb	_hook_x	;, hook_x
   00E7                     261 L19:
                            262 ;----- asm -----
                            263 ; 529 "C:\Users\tsuok\FalloutTTRPG\FishGame\FishGame\source\main.enr.c" 1
                            264 	; #ENR#[384]if (hook_y>=120) hook_y = 120;
                            265 ;--- end asm ---
   00E7 F6 00 01      [ 5]  266 	ldb	_hook_y	; hook_y.17, hook_y
   00EA C1 77         [ 2]  267 	cmpb	#119	;cmpqi:	; hook_y.17,
   00EC 2F 05         [ 3]  268 	ble	L20	;
   00EE C6 78         [ 2]  269 	ldb	#120	;,
   00F0 F7 00 01      [ 5]  270 	stb	_hook_y	;, hook_y
   00F3                     271 L20:
                            272 ;----- asm -----
                            273 ; 531 "C:\Users\tsuok\FalloutTTRPG\FishGame\FishGame\source\main.enr.c" 1
                            274 	; #ENR#[385]if (hook_y<=-120) hook_y = -120;
                            275 ;--- end asm ---
   00F3 F6 00 01      [ 5]  276 	ldb	_hook_y	; hook_y.18, hook_y
   00F6 C1 88         [ 2]  277 	cmpb	#-120	;cmpqi:	; hook_y.18,
   00F8 2E 05         [ 3]  278 	bgt	L21	;
   00FA C6 88         [ 2]  279 	ldb	#-120	;,
   00FC F7 00 01      [ 5]  280 	stb	_hook_y	;, hook_y
   00FF                     281 L21:
                            282 ;----- asm -----
                            283 ; 533 "C:\Users\tsuok\FalloutTTRPG\FishGame\FishGame\source\main.enr.c" 1
                            284 	; #ENR#[386]joy_digital();
                            285 ;--- end asm ---
   00FF BD 00 00      [ 8]  286 	jsr	___Joy_Digital
   0102 39            [ 5]  287 	rts
   0103                     288 _joystick_1_y:
   0103 F6 00 00      [ 5]  289 	ldb	_Vec_Joy_1_Y	; D.3035, Vec_Joy_1_Y
   0106 39            [ 5]  290 	rts
   0107                     291 _joystick_1_x:
   0107 F6 00 00      [ 5]  292 	ldb	_Vec_Joy_1_X	; D.3031, Vec_Joy_1_X
   010A 39            [ 5]  293 	rts
                            294 	.globl	_FishGame
   010B                     295 _FishGame:
   010B 32 7D         [ 5]  296 	leas	-3,s	;,,
                            297 ;----- asm -----
                            298 ; 542 "C:\Users\tsuok\FalloutTTRPG\FishGame\FishGame\source\main.enr.c" 1
                            299 	; #ENR#[394]reset0ref();
                            300 ;--- end asm ---
   010D BD 00 00      [ 8]  301 	jsr	___Reset0Ref
                            302 ;----- asm -----
                            303 ; 546 "C:\Users\tsuok\FalloutTTRPG\FishGame\FishGame\source\main.enr.c" 1
                            304 	; #ENR#[397]via_t1_cnt_lo = 0x40;
                            305 ;--- end asm ---
   0110 C6 40         [ 2]  306 	ldb	#64	;,
   0112 F7 00 00      [ 5]  307 	stb	_VIA_t1_cnt_lo	;, VIA_t1_cnt_lo
                            308 ;----- asm -----
                            309 ; 548 "C:\Users\tsuok\FalloutTTRPG\FishGame\FishGame\source\main.enr.c" 1
                            310 	; #ENR#[398]moveto_d(hook_x, hook_y);
                            311 ;--- end asm ---
   0115 F6 00 01      [ 5]  312 	ldb	_hook_y	;, hook_y
   0118 E7 E4         [ 4]  313 	stb	,s	;, hook_y.19
   011A F6 00 00      [ 5]  314 	ldb	_hook_x	; hook_x.20, hook_x
   011D E7 62         [ 5]  315 	stb	2,s	; hook_x.20, a
   011F E6 E4         [ 4]  316 	ldb	,s	;, hook_y.19
   0121 E7 61         [ 5]  317 	stb	1,s	;, b
   0123 E6 62         [ 5]  318 	ldb	2,s	;, a
   0125 E7 E2         [ 6]  319 	stb	,-s	;,
   0127 E6 62         [ 5]  320 	ldb	2,s	;, b
   0129 BD 00 00      [ 8]  321 	jsr	__Moveto_d
   012C 32 61         [ 5]  322 	leas	1,s	;,,
                            323 ;----- asm -----
                            324 ; 550 "C:\Users\tsuok\FalloutTTRPG\FishGame\FishGame\source\main.enr.c" 1
                            325 	; #ENR#[399]via_t1_cnt_lo = 0x80;
                            326 ;--- end asm ---
   012E C6 80         [ 2]  327 	ldb	#-128	;,
   0130 F7 00 00      [ 5]  328 	stb	_VIA_t1_cnt_lo	;, VIA_t1_cnt_lo
                            329 ;----- asm -----
                            330 ; 552 "C:\Users\tsuok\FalloutTTRPG\FishGame\FishGame\source\main.enr.c" 1
                            331 	; #ENR#[400]draw_vlc((void*) mousepointer);
                            332 ;--- end asm ---
   0133 8E 00 01      [ 3]  333 	ldx	#_MousePointer	;,
   0136 BD 00 00      [ 8]  334 	jsr	___Draw_VLc
                            335 ;----- asm -----
                            336 ; 558 "C:\Users\tsuok\FalloutTTRPG\FishGame\FishGame\source\main.enr.c" 1
                            337 	; #ENR#[405]movehook();
                            338 ;--- end asm ---
   0139 BD 00 93      [ 8]  339 	jsr	_movehook
   013C 32 63         [ 5]  340 	leas	3,s	;,,
   013E 39            [ 5]  341 	rts
                            342 	.globl	_drawWater
   013F                     343 _drawWater:
                            344 ;----- asm -----
                            345 ; 566 "C:\Users\tsuok\FalloutTTRPG\FishGame\FishGame\source\main.enr.c" 1
                            346 	; #ENR#[412]drawspritewithscaleatpos(anotherwave, (unsigned int)0x80, -50,75);
                            347 ;--- end asm ---
   013F C6 4B         [ 2]  348 	ldb	#75	;,
   0141 E7 E2         [ 6]  349 	stb	,-s	;,
   0143 C6 CE         [ 2]  350 	ldb	#-50	;,
   0145 E7 E2         [ 6]  351 	stb	,-s	;,
   0147 C6 80         [ 2]  352 	ldb	#-128	;,
   0149 8E 00 1C      [ 3]  353 	ldx	#_AnotherWave	;,
   014C BD 00 60      [ 8]  354 	jsr	_drawSpriteWithScaleAtPos
   014F 32 62         [ 5]  355 	leas	2,s	;,,
   0151 39            [ 5]  356 	rts
                            357 	.globl	_main
   0152                     358 _main:
   0152 32 7B         [ 5]  359 	leas	-5,s	;,,
                            360 ;----- asm -----
                            361 ; 572 "C:\Users\tsuok\FalloutTTRPG\FishGame\FishGame\source\main.enr.c" 1
                            362 	; #ENR#[417]unsigned char i;
                            363 ; 574 "C:\Users\tsuok\FalloutTTRPG\FishGame\FishGame\source\main.enr.c" 1
                            364 	; #ENR#[418]hook_x = 0;
                            365 ;--- end asm ---
   0154 7F 00 00      [ 7]  366 	clr	_hook_x	; hook_x
                            367 ;----- asm -----
                            368 ; 576 "C:\Users\tsuok\FalloutTTRPG\FishGame\FishGame\source\main.enr.c" 1
                            369 	; #ENR#[419]hook_y = 0;
                            370 ;--- end asm ---
   0157 7F 00 01      [ 7]  371 	clr	_hook_y	; hook_y
                            372 ;----- asm -----
                            373 ; 578 "C:\Users\tsuok\FalloutTTRPG\FishGame\FishGame\source\main.enr.c" 1
                            374 	; #ENR#[420]visible = 0;
                            375 ;--- end asm ---
   015A 7F 00 02      [ 7]  376 	clr	_visible	; visible
                            377 ;----- asm -----
                            378 ; 580 "C:\Users\tsuok\FalloutTTRPG\FishGame\FishGame\source\main.enr.c" 1
                            379 	; #ENR#[421]setup();
                            380 ;--- end asm ---
   015D BD 00 39      [ 8]  381 	jsr	_setup
                            382 ;----- asm -----
                            383 ; 582 "C:\Users\tsuok\FalloutTTRPG\FishGame\FishGame\source\main.enr.c" 1
                            384 	; #ENR#[422]init_new_game();
                            385 ;--- end asm ---
   0160 BD 04 DF      [ 8]  386 	jsr	_init_new_game
                            387 ;----- asm -----
                            388 ; 585 "C:\Users\tsuok\FalloutTTRPG\FishGame\FishGame\source\main.enr.c" 1
                            389 	; #ENR#[424]while(1)
                            390 ;--- end asm ---
   0163                     391 L34:
                            392 ;----- asm -----
                            393 ; 588 "C:\Users\tsuok\FalloutTTRPG\FishGame\FishGame\source\main.enr.c" 1
                            394 	; #ENR#[426]via_t1_cnt_lo = max_scale;
                            395 ;--- end asm ---
   0163 C6 F0         [ 2]  396 	ldb	#-16	;,
   0165 F7 00 00      [ 5]  397 	stb	_VIA_t1_cnt_lo	;, VIA_t1_cnt_lo
                            398 ;----- asm -----
                            399 ; 591 "C:\Users\tsuok\FalloutTTRPG\FishGame\FishGame\source\main.enr.c" 1
                            400 	; #ENR#[428]read_btns();
                            401 ;--- end asm ---
   0168 BD 00 00      [ 8]  402 	jsr	___Read_Btns
                            403 ;----- asm -----
                            404 ; 594 "C:\Users\tsuok\FalloutTTRPG\FishGame\FishGame\source\main.enr.c" 1
                            405 	; #ENR#[430]wait_recal();
                            406 ;--- end asm ---
   016B BD 00 00      [ 8]  407 	jsr	___Wait_Recal
                            408 ;----- asm -----
                            409 ; 596 "C:\Users\tsuok\FalloutTTRPG\FishGame\FishGame\source\main.enr.c" 1
                            410 	; #ENR#[431]intensity_a(0x5f);
                            411 ;--- end asm ---
   016E C6 5F         [ 2]  412 	ldb	#95	;,
   0170 BD 00 00      [ 8]  413 	jsr	__Intensity_a
                            414 ;----- asm -----
                            415 ; 599 "C:\Users\tsuok\FalloutTTRPG\FishGame\FishGame\source\main.enr.c" 1
                            416 	; #ENR#[433]fishgame();
                            417 ;--- end asm ---
   0173 BD 01 0B      [ 8]  418 	jsr	_FishGame
                            419 ;----- asm -----
                            420 ; 601 "C:\Users\tsuok\FalloutTTRPG\FishGame\FishGame\source\main.enr.c" 1
                            421 	; #ENR#[434]drawwater();
                            422 ;--- end asm ---
   0176 BD 01 3F      [ 8]  423 	jsr	_drawWater
                            424 ;----- asm -----
                            425 ; 603 "C:\Users\tsuok\FalloutTTRPG\FishGame\FishGame\source\main.enr.c" 1
                            426 	; #ENR#[435]for (i=0; i < fishes; i++)
                            427 ;--- end asm ---
   0179 6F 64         [ 7]  428 	clr	4,s	; i
   017B 16 00 46      [ 5]  429 	lbra	L32	;
   017E                     430 L33:
                            431 ;----- asm -----
                            432 ; 606 "C:\Users\tsuok\FalloutTTRPG\FishGame\FishGame\source\main.enr.c" 1
                            433 	; #ENR#[437]do_fish(&current_fishes[i]);
                            434 ;--- end asm ---
   017E E6 64         [ 5]  435 	ldb	4,s	;, i
   0180 4F            [ 2]  436 	clra		;zero_extendqihi: R:b -> R:d	;,
   0181 1F 01         [ 6]  437 	tfr	d,x	;, D.3304
   0183 AF 62         [ 6]  438 	stx	2,s	; D.3304,
   0185 EC 62         [ 6]  439 	ldd	2,s	; tmp36,
   0187 58            [ 2]  440 	aslb	;
   0188 49            [ 2]  441 	rola	;
   0189 ED 62         [ 6]  442 	std	2,s	; tmp36,
   018B EC 62         [ 6]  443 	ldd	2,s	;,
   018D 30 8B         [ 8]  444 	leax	d,x	;,, D.3304
   018F AF 62         [ 6]  445 	stx	2,s	;,
   0191 EC 62         [ 6]  446 	ldd	2,s	; tmp37,
   0193 58            [ 2]  447 	aslb	;
   0194 49            [ 2]  448 	rola	;
   0195 ED 62         [ 6]  449 	std	2,s	; tmp37,
   0197 AE 62         [ 6]  450 	ldx	2,s	; D.3305,
   0199 30 89 00 03   [ 8]  451 	leax	_current_fishes,x	; D.3306,, D.3305
   019D BD 02 30      [ 8]  452 	jsr	_do_fish
                            453 ;----- asm -----
                            454 ; 608 "C:\Users\tsuok\FalloutTTRPG\FishGame\FishGame\source\main.enr.c" 1
                            455 	; #ENR#[438]fishcollision(&current_fishes[i]);
                            456 ;--- end asm ---
   01A0 E6 64         [ 5]  457 	ldb	4,s	;, i
   01A2 4F            [ 2]  458 	clra		;zero_extendqihi: R:b -> R:d	;,
   01A3 1F 01         [ 6]  459 	tfr	d,x	;, D.3307
   01A5 AF E4         [ 5]  460 	stx	,s	; D.3307,
   01A7 EC E4         [ 5]  461 	ldd	,s	; tmp39,
   01A9 58            [ 2]  462 	aslb	;
   01AA 49            [ 2]  463 	rola	;
   01AB ED E4         [ 5]  464 	std	,s	; tmp39,
   01AD EC E4         [ 5]  465 	ldd	,s	;,
   01AF 30 8B         [ 8]  466 	leax	d,x	;,, D.3307
   01B1 AF E4         [ 5]  467 	stx	,s	;,
   01B3 EC E4         [ 5]  468 	ldd	,s	; tmp40,
   01B5 58            [ 2]  469 	aslb	;
   01B6 49            [ 2]  470 	rola	;
   01B7 ED E4         [ 5]  471 	std	,s	; tmp40,
   01B9 AE E4         [ 5]  472 	ldx	,s	; D.3308,
   01BB 30 89 00 03   [ 8]  473 	leax	_current_fishes,x	; D.3309,, D.3308
   01BF BD 01 EA      [ 8]  474 	jsr	_fishCollision
   01C2 6C 64         [ 7]  475 	inc	4,s	; i
   01C4                     476 L32:
   01C4 E6 64         [ 5]  477 	ldb	4,s	;, i
   01C6 C1 02         [ 2]  478 	cmpb	#2	;cmpqi:	;,
   01C8 10 23 FF B2   [ 6]  479 	lbls	L33	;
   01CC 16 FF 94      [ 5]  480 	lbra	L34	;
   01CF                     481 LC0:
   01CF 59 4F 55 20 4B 4E   482 	.byte	89,79,85,32,75,78,79,87
        4F 57
   01D7 20 57 48 41 54 20   483 	.byte	32,87,72,65,84,32,84,72
        54 48
   01DF 41 54 20 4D 45 41   484 	.byte	65,84,32,77,69,65,78,83
        4E 53
   01E7 3F 80 00            485 	.byte	63,-128,0
   01EA                     486 _fishCollision:
   01EA 32 7C         [ 5]  487 	leas	-4,s	;,,
   01EC AF 62         [ 6]  488 	stx	2,s	; current_fish, current_fish
                            489 ;----- asm -----
                            490 ; 213 "C:\Users\tsuok\FalloutTTRPG\FishGame\FishGame\source\main.enr.c" 1
                            491 	; #ENR#[183]if(visible == 1)
                            492 ;--- end asm ---
   01EE F6 00 02      [ 5]  493 	ldb	_visible	; visible.2, visible
   01F1 C1 01         [ 2]  494 	cmpb	#1	;cmpqi:	; visible.2,
   01F3 26 13         [ 3]  495 	bne	L37	;
                            496 ;----- asm -----
                            497 ; 216 "C:\Users\tsuok\FalloutTTRPG\FishGame\FishGame\source\main.enr.c" 1
                            498 	; #ENR#[185]reset0ref();
                            499 ;--- end asm ---
   01F5 BD 00 00      [ 8]  500 	jsr	___Reset0Ref
                            501 ;----- asm -----
                            502 ; 218 "C:\Users\tsuok\FalloutTTRPG\FishGame\FishGame\source\main.enr.c" 1
                            503 	; #ENR#[186]print_str_d(texty,textx, );
                            504 ;--- end asm ---
   01F8 C6 9C         [ 2]  505 	ldb	#-100	;,
   01FA E7 E2         [ 6]  506 	stb	,-s	;,
   01FC 8E 01 CF      [ 3]  507 	ldx	#LC0	;,
   01FF C6 80         [ 2]  508 	ldb	#-128	;,
   0201 BD 00 00      [ 8]  509 	jsr	__Print_Str_d
   0204 32 61         [ 5]  510 	leas	1,s	;,,
   0206 20 25         [ 3]  511 	bra	L38	;
   0208                     512 L37:
   0208 AE 62         [ 6]  513 	ldx	2,s	; tmp33, current_fish
   020A E6 05         [ 5]  514 	ldb	5,x	;, <variable>.y
   020C E7 E4         [ 4]  515 	stb	,s	;, D.3139
   020E F6 00 01      [ 5]  516 	ldb	_hook_y	; hook_y.3, hook_y
   0211 E1 E4         [ 4]  517 	cmpb	,s	;cmpqi:(R)	; hook_y.3, D.3139
   0213 27 0D         [ 3]  518 	beq	L39	;
   0215 AE 62         [ 6]  519 	ldx	2,s	; tmp34, current_fish
   0217 E6 04         [ 5]  520 	ldb	4,x	;, <variable>.x
   0219 E7 61         [ 5]  521 	stb	1,s	;, D.3141
   021B F6 00 00      [ 5]  522 	ldb	_hook_x	; hook_x.4, hook_x
   021E E1 61         [ 5]  523 	cmpb	1,s	;cmpqi:(R)	; hook_x.4, D.3141
   0220 26 0B         [ 3]  524 	bne	L38	;
   0222                     525 L39:
                            526 ;----- asm -----
                            527 ; 225 "C:\Users\tsuok\FalloutTTRPG\FishGame\FishGame\source\main.enr.c" 1
                            528 	; #ENR#[192]if(visible == 0)
                            529 ;--- end asm ---
   0222 F6 00 02      [ 5]  530 	ldb	_visible	; visible.5, visible
   0225 5D            [ 2]  531 	tstb	; visible.5
   0226 26 05         [ 3]  532 	bne	L38	;
                            533 ;----- asm -----
                            534 ; 228 "C:\Users\tsuok\FalloutTTRPG\FishGame\FishGame\source\main.enr.c" 1
                            535 	; #ENR#[194]visible = 1;
                            536 ;--- end asm ---
   0228 C6 01         [ 2]  537 	ldb	#1	;,
   022A F7 00 02      [ 5]  538 	stb	_visible	;, visible
   022D                     539 L38:
                            540 ;----- asm -----
                            541 ; 234 "C:\Users\tsuok\FalloutTTRPG\FishGame\FishGame\source\main.enr.c" 1
                            542 	; #ENR#[199]return;
                            543 ;--- end asm ---
   022D 32 64         [ 5]  544 	leas	4,s	;,,
   022F 39            [ 5]  545 	rts
   0230                     546 _do_fish:
   0230 34 40         [ 6]  547 	pshs	u	;
   0232 32 E8 EC      [ 5]  548 	leas	-20,s	;,,
   0235 AF E8 10      [ 6]  549 	stx	16,s	; current_fish, current_fish
                            550 ;----- asm -----
                            551 ; 246 "C:\Users\tsuok\FalloutTTRPG\FishGame\FishGame\source\main.enr.c" 1
                            552 	; #ENR#[210]reset0ref();
                            553 ;--- end asm ---
   0238 BD 00 00      [ 8]  554 	jsr	___Reset0Ref
                            555 ;----- asm -----
                            556 ; 248 "C:\Users\tsuok\FalloutTTRPG\FishGame\FishGame\source\main.enr.c" 1
                            557 	; #ENR#[211]if (current_fish->fish_counter > 0)
                            558 ;--- end asm ---
   023B E6 F8 10      [ 8]  559 	ldb	[16,s]	; D.3164, <variable>.fish_counter
   023E 5D            [ 2]  560 	tstb	; D.3164
   023F 2F 16         [ 3]  561 	ble	L42	;
                            562 ;----- asm -----
                            563 ; 251 "C:\Users\tsuok\FalloutTTRPG\FishGame\FishGame\source\main.enr.c" 1
                            564 	; #ENR#[213]current_fish->fish_counter--;
                            565 ;--- end asm ---
   0241 E6 F8 10      [ 8]  566 	ldb	[16,s]	; D.3165, <variable>.fish_counter
   0244 5A            [ 2]  567 	decb	; D.3166
   0245 E7 F8 10      [ 8]  568 	stb	[16,s]	; D.3166, <variable>.fish_counter
                            569 ;----- asm -----
                            570 ; 253 "C:\Users\tsuok\FalloutTTRPG\FishGame\FishGame\source\main.enr.c" 1
                            571 	; #ENR#[214]if (current_fish->fish_counter == 0)
                            572 ;--- end asm ---
   0248 E6 F8 10      [ 8]  573 	ldb	[16,s]	; D.3167, <variable>.fish_counter
   024B 5D            [ 2]  574 	tstb	; D.3167
   024C 26 06         [ 3]  575 	bne	L43	;
                            576 ;----- asm -----
                            577 ; 256 "C:\Users\tsuok\FalloutTTRPG\FishGame\FishGame\source\main.enr.c" 1
                            578 	; #ENR#[216]init_fish(current_fish);
                            579 ;--- end asm ---
   024E AE E8 10      [ 6]  580 	ldx	16,s	;, current_fish
   0251 BD 04 6C      [ 8]  581 	jsr	_init_fish
   0254                     582 L43:
                            583 ;----- asm -----
                            584 ; 259 "C:\Users\tsuok\FalloutTTRPG\FishGame\FishGame\source\main.enr.c" 1
                            585 	; #ENR#[218]return;
                            586 ;--- end asm ---
   0254 16 02 10      [ 5]  587 	lbra	L68	;
   0257                     588 L42:
                            589 ;----- asm -----
                            590 ; 264 "C:\Users\tsuok\FalloutTTRPG\FishGame\FishGame\source\main.enr.c" 1
                            591 	; #ENR#[222]switch (current_fish->direction)
                            592 ;--- end asm ---
   0257 AE E8 10      [ 6]  593 	ldx	16,s	; tmp82, current_fish
   025A E6 01         [ 5]  594 	ldb	1,x	;, <variable>.direction
   025C E7 62         [ 5]  595 	stb	2,s	;, D.3168
   025E E6 62         [ 5]  596 	ldb	2,s	;, D.3168
   0260 C1 07         [ 2]  597 	cmpb	#7	;cmpqi:	;,
   0262 10 22 01 CF   [ 6]  598 	lbhi	L45	;
   0266 E6 62         [ 5]  599 	ldb	2,s	;, D.3168
   0268 4F            [ 2]  600 	clra		;zero_extendqihi: R:b -> R:d	;,
   0269 ED E4         [ 5]  601 	std	,s	;,
   026B EC E4         [ 5]  602 	ldd	,s	; tmp84,
   026D 58            [ 2]  603 	aslb	;
   026E 49            [ 2]  604 	rola	;
   026F CE 02 78      [ 3]  605 	ldu	#L54	;,
   0272 30 CB         [ 8]  606 	leax	d,u	; tmp85, tmp84,
   0274 AE 84         [ 5]  607 	ldx	,x	; tmp86,
   0276 6E 84         [ 3]  608 	jmp	,x	; tmp86
   0278                     609 L54:
   0278 02 88               610 	.word	L46
   027A 02 CB               611 	.word	L47
   027C 02 F2               612 	.word	L48
   027E 03 36               613 	.word	L49
   0280 03 5E               614 	.word	L50
   0282 03 A3               615 	.word	L51
   0284 03 CB               616 	.word	L52
   0286 04 0F               617 	.word	L53
   0288                     618 L46:
                            619 ;----- asm -----
                            620 ; 270 "C:\Users\tsuok\FalloutTTRPG\FishGame\FishGame\source\main.enr.c" 1
                            621 	; #ENR#[226]
                            622 ; 272 "C:\Users\tsuok\FalloutTTRPG\FishGame\FishGame\source\main.enr.c" 1
                            623 	; #ENR#[227]if ((current_fish->x > 120) || (current_fish->y > 120) )
                            624 ;--- end asm ---
   0288 AE E8 10      [ 6]  625 	ldx	16,s	; tmp87, current_fish
   028B E6 04         [ 5]  626 	ldb	4,x	; D.3171, <variable>.x
   028D C1 78         [ 2]  627 	cmpb	#120	;cmpqi:	; D.3171,
   028F 2E 09         [ 3]  628 	bgt	L55	;
   0291 AE E8 10      [ 6]  629 	ldx	16,s	; tmp88, current_fish
   0294 E6 05         [ 5]  630 	ldb	5,x	; D.3172, <variable>.y
   0296 C1 78         [ 2]  631 	cmpb	#120	;cmpqi:	; D.3172,
   0298 2F 08         [ 3]  632 	ble	L56	;
   029A                     633 L55:
                            634 ;----- asm -----
                            635 ; 275 "C:\Users\tsuok\FalloutTTRPG\FishGame\FishGame\source\main.enr.c" 1
                            636 	; #ENR#[229]
                            637 ; 277 "C:\Users\tsuok\FalloutTTRPG\FishGame\FishGame\source\main.enr.c" 1
                            638 	; #ENR#[230]current_fish->fish_counter = fish_intervall;
                            639 ;--- end asm ---
   029A C6 04         [ 2]  640 	ldb	#4	;,
   029C E7 F8 10      [ 8]  641 	stb	[16,s]	;, <variable>.fish_counter
                            642 ;----- asm -----
                            643 ; 279 "C:\Users\tsuok\FalloutTTRPG\FishGame\FishGame\source\main.enr.c" 1
                            644 	; #ENR#[231]
                            645 ; 281 "C:\Users\tsuok\FalloutTTRPG\FishGame\FishGame\source\main.enr.c" 1
                            646 	; #ENR#[232]return;
                            647 ;--- end asm ---
   029F 16 01 C5      [ 5]  648 	lbra	L68	;
   02A2                     649 L56:
                            650 ;----- asm -----
                            651 ; 284 "C:\Users\tsuok\FalloutTTRPG\FishGame\FishGame\source\main.enr.c" 1
                            652 	; #ENR#[234]current_fish->x += current_fish->speed;
                            653 ;--- end asm ---
   02A2 AE E8 10      [ 6]  654 	ldx	16,s	; tmp89, current_fish
   02A5 E6 04         [ 5]  655 	ldb	4,x	;, <variable>.x
   02A7 E7 63         [ 5]  656 	stb	3,s	;, D.3173
   02A9 AE E8 10      [ 6]  657 	ldx	16,s	; tmp90, current_fish
   02AC E6 02         [ 5]  658 	ldb	2,x	; D.3174, <variable>.speed
   02AE EB 63         [ 5]  659 	addb	3,s	; D.3175, D.3173
   02B0 AE E8 10      [ 6]  660 	ldx	16,s	; tmp91, current_fish
   02B3 E7 04         [ 5]  661 	stb	4,x	; D.3175, <variable>.x
                            662 ;----- asm -----
                            663 ; 286 "C:\Users\tsuok\FalloutTTRPG\FishGame\FishGame\source\main.enr.c" 1
                            664 	; #ENR#[235]current_fish->y += current_fish->speed;
                            665 ;--- end asm ---
   02B5 AE E8 10      [ 6]  666 	ldx	16,s	; tmp92, current_fish
   02B8 E6 05         [ 5]  667 	ldb	5,x	;, <variable>.y
   02BA E7 64         [ 5]  668 	stb	4,s	;, D.3176
   02BC AE E8 10      [ 6]  669 	ldx	16,s	; tmp93, current_fish
   02BF E6 02         [ 5]  670 	ldb	2,x	; D.3177, <variable>.speed
   02C1 EB 64         [ 5]  671 	addb	4,s	; D.3178, D.3176
   02C3 AE E8 10      [ 6]  672 	ldx	16,s	; tmp94, current_fish
   02C6 E7 05         [ 5]  673 	stb	5,x	; D.3178, <variable>.y
                            674 ;----- asm -----
                            675 ; 288 "C:\Users\tsuok\FalloutTTRPG\FishGame\FishGame\source\main.enr.c" 1
                            676 	; #ENR#[236]break;
                            677 ;--- end asm ---
   02C8 16 01 71      [ 5]  678 	lbra	L57	;
   02CB                     679 L47:
                            680 ;----- asm -----
                            681 ; 294 "C:\Users\tsuok\FalloutTTRPG\FishGame\FishGame\source\main.enr.c" 1
                            682 	; #ENR#[240]
                            683 ; 296 "C:\Users\tsuok\FalloutTTRPG\FishGame\FishGame\source\main.enr.c" 1
                            684 	; #ENR#[241]if (current_fish->x > 120)
                            685 ;--- end asm ---
   02CB AE E8 10      [ 6]  686 	ldx	16,s	; tmp95, current_fish
   02CE E6 04         [ 5]  687 	ldb	4,x	; D.3179, <variable>.x
   02D0 C1 78         [ 2]  688 	cmpb	#120	;cmpqi:	; D.3179,
   02D2 2F 08         [ 3]  689 	ble	L58	;
                            690 ;----- asm -----
                            691 ; 299 "C:\Users\tsuok\FalloutTTRPG\FishGame\FishGame\source\main.enr.c" 1
                            692 	; #ENR#[243]
                            693 ; 301 "C:\Users\tsuok\FalloutTTRPG\FishGame\FishGame\source\main.enr.c" 1
                            694 	; #ENR#[244]current_fish->fish_counter = fish_intervall;
                            695 ;--- end asm ---
   02D4 C6 04         [ 2]  696 	ldb	#4	;,
   02D6 E7 F8 10      [ 8]  697 	stb	[16,s]	;, <variable>.fish_counter
                            698 ;----- asm -----
                            699 ; 303 "C:\Users\tsuok\FalloutTTRPG\FishGame\FishGame\source\main.enr.c" 1
                            700 	; #ENR#[245]
                            701 ; 305 "C:\Users\tsuok\FalloutTTRPG\FishGame\FishGame\source\main.enr.c" 1
                            702 	; #ENR#[246]return;
                            703 ;--- end asm ---
   02D9 16 01 8B      [ 5]  704 	lbra	L68	;
   02DC                     705 L58:
                            706 ;----- asm -----
                            707 ; 308 "C:\Users\tsuok\FalloutTTRPG\FishGame\FishGame\source\main.enr.c" 1
                            708 	; #ENR#[248]
                            709 ; 310 "C:\Users\tsuok\FalloutTTRPG\FishGame\FishGame\source\main.enr.c" 1
                            710 	; #ENR#[249]current_fish->x += current_fish->speed;
                            711 ;--- end asm ---
   02DC AE E8 10      [ 6]  712 	ldx	16,s	; tmp96, current_fish
   02DF E6 04         [ 5]  713 	ldb	4,x	;, <variable>.x
   02E1 E7 65         [ 5]  714 	stb	5,s	;, D.3180
   02E3 AE E8 10      [ 6]  715 	ldx	16,s	; tmp97, current_fish
   02E6 E6 02         [ 5]  716 	ldb	2,x	; D.3181, <variable>.speed
   02E8 EB 65         [ 5]  717 	addb	5,s	; D.3182, D.3180
   02EA AE E8 10      [ 6]  718 	ldx	16,s	; tmp98, current_fish
   02ED E7 04         [ 5]  719 	stb	4,x	; D.3182, <variable>.x
                            720 ;----- asm -----
                            721 ; 312 "C:\Users\tsuok\FalloutTTRPG\FishGame\FishGame\source\main.enr.c" 1
                            722 	; #ENR#[250]break;
                            723 ;--- end asm ---
   02EF 16 01 4A      [ 5]  724 	lbra	L57	;
   02F2                     725 L48:
                            726 ;----- asm -----
                            727 ; 318 "C:\Users\tsuok\FalloutTTRPG\FishGame\FishGame\source\main.enr.c" 1
                            728 	; #ENR#[254]
                            729 ; 320 "C:\Users\tsuok\FalloutTTRPG\FishGame\FishGame\source\main.enr.c" 1
                            730 	; #ENR#[255]if ((current_fish->x > 120) || (current_fish->y < -120) )
                            731 ;--- end asm ---
   02F2 AE E8 10      [ 6]  732 	ldx	16,s	; tmp99, current_fish
   02F5 E6 04         [ 5]  733 	ldb	4,x	; D.3185, <variable>.x
   02F7 C1 78         [ 2]  734 	cmpb	#120	;cmpqi:	; D.3185,
   02F9 2E 09         [ 3]  735 	bgt	L59	;
   02FB AE E8 10      [ 6]  736 	ldx	16,s	; tmp100, current_fish
   02FE E6 05         [ 5]  737 	ldb	5,x	; D.3186, <variable>.y
   0300 C1 88         [ 2]  738 	cmpb	#-120	;cmpqi:	; D.3186,
   0302 2C 08         [ 3]  739 	bge	L60	;
   0304                     740 L59:
                            741 ;----- asm -----
                            742 ; 323 "C:\Users\tsuok\FalloutTTRPG\FishGame\FishGame\source\main.enr.c" 1
                            743 	; #ENR#[257]
                            744 ; 325 "C:\Users\tsuok\FalloutTTRPG\FishGame\FishGame\source\main.enr.c" 1
                            745 	; #ENR#[258]current_fish->fish_counter = fish_intervall;
                            746 ;--- end asm ---
   0304 C6 04         [ 2]  747 	ldb	#4	;,
   0306 E7 F8 10      [ 8]  748 	stb	[16,s]	;, <variable>.fish_counter
                            749 ;----- asm -----
                            750 ; 327 "C:\Users\tsuok\FalloutTTRPG\FishGame\FishGame\source\main.enr.c" 1
                            751 	; #ENR#[259]
                            752 ; 329 "C:\Users\tsuok\FalloutTTRPG\FishGame\FishGame\source\main.enr.c" 1
                            753 	; #ENR#[260]return;
                            754 ;--- end asm ---
   0309 16 01 5B      [ 5]  755 	lbra	L68	;
   030C                     756 L60:
                            757 ;----- asm -----
                            758 ; 332 "C:\Users\tsuok\FalloutTTRPG\FishGame\FishGame\source\main.enr.c" 1
                            759 	; #ENR#[262]
                            760 ; 334 "C:\Users\tsuok\FalloutTTRPG\FishGame\FishGame\source\main.enr.c" 1
                            761 	; #ENR#[263]current_fish->x += current_fish->speed;
                            762 ;--- end asm ---
   030C AE E8 10      [ 6]  763 	ldx	16,s	; tmp101, current_fish
   030F E6 04         [ 5]  764 	ldb	4,x	;, <variable>.x
   0311 E7 66         [ 5]  765 	stb	6,s	;, D.3187
   0313 AE E8 10      [ 6]  766 	ldx	16,s	; tmp102, current_fish
   0316 E6 02         [ 5]  767 	ldb	2,x	; D.3188, <variable>.speed
   0318 EB 66         [ 5]  768 	addb	6,s	; D.3189, D.3187
   031A AE E8 10      [ 6]  769 	ldx	16,s	; tmp103, current_fish
   031D E7 04         [ 5]  770 	stb	4,x	; D.3189, <variable>.x
                            771 ;----- asm -----
                            772 ; 336 "C:\Users\tsuok\FalloutTTRPG\FishGame\FishGame\source\main.enr.c" 1
                            773 	; #ENR#[264]current_fish->y -= current_fish->speed;
                            774 ;--- end asm ---
   031F AE E8 10      [ 6]  775 	ldx	16,s	; tmp104, current_fish
   0322 E6 05         [ 5]  776 	ldb	5,x	;, <variable>.y
   0324 E7 67         [ 5]  777 	stb	7,s	;, D.3190
   0326 AE E8 10      [ 6]  778 	ldx	16,s	; tmp105, current_fish
   0329 E6 02         [ 5]  779 	ldb	2,x	; D.3191, <variable>.speed
   032B E0 67         [ 5]  780 	subb	7,s	; D.3192, D.3190
   032D 50            [ 2]  781 	negb	; D.3192
   032E AE E8 10      [ 6]  782 	ldx	16,s	; tmp106, current_fish
   0331 E7 05         [ 5]  783 	stb	5,x	; D.3192, <variable>.y
                            784 ;----- asm -----
                            785 ; 338 "C:\Users\tsuok\FalloutTTRPG\FishGame\FishGame\source\main.enr.c" 1
                            786 	; #ENR#[265]break;
                            787 ;--- end asm ---
   0333 16 01 06      [ 5]  788 	lbra	L57	;
   0336                     789 L49:
                            790 ;----- asm -----
                            791 ; 344 "C:\Users\tsuok\FalloutTTRPG\FishGame\FishGame\source\main.enr.c" 1
                            792 	; #ENR#[269]
                            793 ; 346 "C:\Users\tsuok\FalloutTTRPG\FishGame\FishGame\source\main.enr.c" 1
                            794 	; #ENR#[270]if (current_fish->y < -120)
                            795 ;--- end asm ---
   0336 AE E8 10      [ 6]  796 	ldx	16,s	; tmp107, current_fish
   0339 E6 05         [ 5]  797 	ldb	5,x	; D.3193, <variable>.y
   033B C1 88         [ 2]  798 	cmpb	#-120	;cmpqi:	; D.3193,
   033D 2C 08         [ 3]  799 	bge	L61	;
                            800 ;----- asm -----
                            801 ; 349 "C:\Users\tsuok\FalloutTTRPG\FishGame\FishGame\source\main.enr.c" 1
                            802 	; #ENR#[272]
                            803 ; 351 "C:\Users\tsuok\FalloutTTRPG\FishGame\FishGame\source\main.enr.c" 1
                            804 	; #ENR#[273]current_fish->fish_counter = fish_intervall;
                            805 ;--- end asm ---
   033F C6 04         [ 2]  806 	ldb	#4	;,
   0341 E7 F8 10      [ 8]  807 	stb	[16,s]	;, <variable>.fish_counter
                            808 ;----- asm -----
                            809 ; 353 "C:\Users\tsuok\FalloutTTRPG\FishGame\FishGame\source\main.enr.c" 1
                            810 	; #ENR#[274]
                            811 ; 355 "C:\Users\tsuok\FalloutTTRPG\FishGame\FishGame\source\main.enr.c" 1
                            812 	; #ENR#[275]return;
                            813 ;--- end asm ---
   0344 16 01 20      [ 5]  814 	lbra	L68	;
   0347                     815 L61:
                            816 ;----- asm -----
                            817 ; 358 "C:\Users\tsuok\FalloutTTRPG\FishGame\FishGame\source\main.enr.c" 1
                            818 	; #ENR#[277]
                            819 ; 360 "C:\Users\tsuok\FalloutTTRPG\FishGame\FishGame\source\main.enr.c" 1
                            820 	; #ENR#[278]current_fish->y -= current_fish->speed;
                            821 ;--- end asm ---
   0347 AE E8 10      [ 6]  822 	ldx	16,s	; tmp108, current_fish
   034A E6 05         [ 5]  823 	ldb	5,x	;, <variable>.y
   034C E7 68         [ 5]  824 	stb	8,s	;, D.3194
   034E AE E8 10      [ 6]  825 	ldx	16,s	; tmp109, current_fish
   0351 E6 02         [ 5]  826 	ldb	2,x	; D.3195, <variable>.speed
   0353 E0 68         [ 5]  827 	subb	8,s	; D.3196, D.3194
   0355 50            [ 2]  828 	negb	; D.3196
   0356 AE E8 10      [ 6]  829 	ldx	16,s	; tmp110, current_fish
   0359 E7 05         [ 5]  830 	stb	5,x	; D.3196, <variable>.y
                            831 ;----- asm -----
                            832 ; 362 "C:\Users\tsuok\FalloutTTRPG\FishGame\FishGame\source\main.enr.c" 1
                            833 	; #ENR#[279]break;
                            834 ;--- end asm ---
   035B 16 00 DE      [ 5]  835 	lbra	L57	;
   035E                     836 L50:
                            837 ;----- asm -----
                            838 ; 368 "C:\Users\tsuok\FalloutTTRPG\FishGame\FishGame\source\main.enr.c" 1
                            839 	; #ENR#[283]
                            840 ; 370 "C:\Users\tsuok\FalloutTTRPG\FishGame\FishGame\source\main.enr.c" 1
                            841 	; #ENR#[284]if ((current_fish->x < -120) || (current_fish->y < -120) )
                            842 ;--- end asm ---
   035E AE E8 10      [ 6]  843 	ldx	16,s	; tmp111, current_fish
   0361 E6 04         [ 5]  844 	ldb	4,x	; D.3199, <variable>.x
   0363 C1 88         [ 2]  845 	cmpb	#-120	;cmpqi:	; D.3199,
   0365 2D 09         [ 3]  846 	blt	L62	;
   0367 AE E8 10      [ 6]  847 	ldx	16,s	; tmp112, current_fish
   036A E6 05         [ 5]  848 	ldb	5,x	; D.3200, <variable>.y
   036C C1 88         [ 2]  849 	cmpb	#-120	;cmpqi:	; D.3200,
   036E 2C 08         [ 3]  850 	bge	L63	;
   0370                     851 L62:
                            852 ;----- asm -----
                            853 ; 373 "C:\Users\tsuok\FalloutTTRPG\FishGame\FishGame\source\main.enr.c" 1
                            854 	; #ENR#[286]
                            855 ; 375 "C:\Users\tsuok\FalloutTTRPG\FishGame\FishGame\source\main.enr.c" 1
                            856 	; #ENR#[287]current_fish->fish_counter = fish_intervall;
                            857 ;--- end asm ---
   0370 C6 04         [ 2]  858 	ldb	#4	;,
   0372 E7 F8 10      [ 8]  859 	stb	[16,s]	;, <variable>.fish_counter
                            860 ;----- asm -----
                            861 ; 377 "C:\Users\tsuok\FalloutTTRPG\FishGame\FishGame\source\main.enr.c" 1
                            862 	; #ENR#[288]
                            863 ; 379 "C:\Users\tsuok\FalloutTTRPG\FishGame\FishGame\source\main.enr.c" 1
                            864 	; #ENR#[289]return;
                            865 ;--- end asm ---
   0375 16 00 EF      [ 5]  866 	lbra	L68	;
   0378                     867 L63:
                            868 ;----- asm -----
                            869 ; 382 "C:\Users\tsuok\FalloutTTRPG\FishGame\FishGame\source\main.enr.c" 1
                            870 	; #ENR#[291]
                            871 ; 384 "C:\Users\tsuok\FalloutTTRPG\FishGame\FishGame\source\main.enr.c" 1
                            872 	; #ENR#[292]current_fish->x -= current_fish->speed;
                            873 ;--- end asm ---
   0378 AE E8 10      [ 6]  874 	ldx	16,s	; tmp113, current_fish
   037B E6 04         [ 5]  875 	ldb	4,x	;, <variable>.x
   037D E7 69         [ 5]  876 	stb	9,s	;, D.3201
   037F AE E8 10      [ 6]  877 	ldx	16,s	; tmp114, current_fish
   0382 E6 02         [ 5]  878 	ldb	2,x	; D.3202, <variable>.speed
   0384 E0 69         [ 5]  879 	subb	9,s	; D.3203, D.3201
   0386 50            [ 2]  880 	negb	; D.3203
   0387 AE E8 10      [ 6]  881 	ldx	16,s	; tmp115, current_fish
   038A E7 04         [ 5]  882 	stb	4,x	; D.3203, <variable>.x
                            883 ;----- asm -----
                            884 ; 386 "C:\Users\tsuok\FalloutTTRPG\FishGame\FishGame\source\main.enr.c" 1
                            885 	; #ENR#[293]current_fish->y -= current_fish->speed;
                            886 ;--- end asm ---
   038C AE E8 10      [ 6]  887 	ldx	16,s	; tmp116, current_fish
   038F E6 05         [ 5]  888 	ldb	5,x	;, <variable>.y
   0391 E7 6A         [ 5]  889 	stb	10,s	;, D.3204
   0393 AE E8 10      [ 6]  890 	ldx	16,s	; tmp117, current_fish
   0396 E6 02         [ 5]  891 	ldb	2,x	; D.3205, <variable>.speed
   0398 E0 6A         [ 5]  892 	subb	10,s	; D.3206, D.3204
   039A 50            [ 2]  893 	negb	; D.3206
   039B AE E8 10      [ 6]  894 	ldx	16,s	; tmp118, current_fish
   039E E7 05         [ 5]  895 	stb	5,x	; D.3206, <variable>.y
                            896 ;----- asm -----
                            897 ; 388 "C:\Users\tsuok\FalloutTTRPG\FishGame\FishGame\source\main.enr.c" 1
                            898 	; #ENR#[294]break;
                            899 ;--- end asm ---
   03A0 16 00 99      [ 5]  900 	lbra	L57	;
   03A3                     901 L51:
                            902 ;----- asm -----
                            903 ; 394 "C:\Users\tsuok\FalloutTTRPG\FishGame\FishGame\source\main.enr.c" 1
                            904 	; #ENR#[298]
                            905 ; 396 "C:\Users\tsuok\FalloutTTRPG\FishGame\FishGame\source\main.enr.c" 1
                            906 	; #ENR#[299]if (current_fish->x < -120)
                            907 ;--- end asm ---
   03A3 AE E8 10      [ 6]  908 	ldx	16,s	; tmp119, current_fish
   03A6 E6 04         [ 5]  909 	ldb	4,x	; D.3207, <variable>.x
   03A8 C1 88         [ 2]  910 	cmpb	#-120	;cmpqi:	; D.3207,
   03AA 2C 08         [ 3]  911 	bge	L64	;
                            912 ;----- asm -----
                            913 ; 399 "C:\Users\tsuok\FalloutTTRPG\FishGame\FishGame\source\main.enr.c" 1
                            914 	; #ENR#[301]
                            915 ; 401 "C:\Users\tsuok\FalloutTTRPG\FishGame\FishGame\source\main.enr.c" 1
                            916 	; #ENR#[302]current_fish->fish_counter = fish_intervall;
                            917 ;--- end asm ---
   03AC C6 04         [ 2]  918 	ldb	#4	;,
   03AE E7 F8 10      [ 8]  919 	stb	[16,s]	;, <variable>.fish_counter
                            920 ;----- asm -----
                            921 ; 403 "C:\Users\tsuok\FalloutTTRPG\FishGame\FishGame\source\main.enr.c" 1
                            922 	; #ENR#[303]
                            923 ; 405 "C:\Users\tsuok\FalloutTTRPG\FishGame\FishGame\source\main.enr.c" 1
                            924 	; #ENR#[304]return;
                            925 ;--- end asm ---
   03B1 16 00 B3      [ 5]  926 	lbra	L68	;
   03B4                     927 L64:
                            928 ;----- asm -----
                            929 ; 408 "C:\Users\tsuok\FalloutTTRPG\FishGame\FishGame\source\main.enr.c" 1
                            930 	; #ENR#[306]
                            931 ; 410 "C:\Users\tsuok\FalloutTTRPG\FishGame\FishGame\source\main.enr.c" 1
                            932 	; #ENR#[307]current_fish->x -= current_fish->speed;
                            933 ;--- end asm ---
   03B4 AE E8 10      [ 6]  934 	ldx	16,s	; tmp120, current_fish
   03B7 E6 04         [ 5]  935 	ldb	4,x	;, <variable>.x
   03B9 E7 6B         [ 5]  936 	stb	11,s	;, D.3208
   03BB AE E8 10      [ 6]  937 	ldx	16,s	; tmp121, current_fish
   03BE E6 02         [ 5]  938 	ldb	2,x	; D.3209, <variable>.speed
   03C0 E0 6B         [ 5]  939 	subb	11,s	; D.3210, D.3208
   03C2 50            [ 2]  940 	negb	; D.3210
   03C3 AE E8 10      [ 6]  941 	ldx	16,s	; tmp122, current_fish
   03C6 E7 04         [ 5]  942 	stb	4,x	; D.3210, <variable>.x
                            943 ;----- asm -----
                            944 ; 412 "C:\Users\tsuok\FalloutTTRPG\FishGame\FishGame\source\main.enr.c" 1
                            945 	; #ENR#[308]break;
                            946 ;--- end asm ---
   03C8 16 00 71      [ 5]  947 	lbra	L57	;
   03CB                     948 L52:
                            949 ;----- asm -----
                            950 ; 418 "C:\Users\tsuok\FalloutTTRPG\FishGame\FishGame\source\main.enr.c" 1
                            951 	; #ENR#[312]
                            952 ; 420 "C:\Users\tsuok\FalloutTTRPG\FishGame\FishGame\source\main.enr.c" 1
                            953 	; #ENR#[313]if ((current_fish->x < -120) || (current_fish->y > 120) )
                            954 ;--- end asm ---
   03CB AE E8 10      [ 6]  955 	ldx	16,s	; tmp123, current_fish
   03CE E6 04         [ 5]  956 	ldb	4,x	; D.3213, <variable>.x
   03D0 C1 88         [ 2]  957 	cmpb	#-120	;cmpqi:	; D.3213,
   03D2 2D 09         [ 3]  958 	blt	L65	;
   03D4 AE E8 10      [ 6]  959 	ldx	16,s	; tmp124, current_fish
   03D7 E6 05         [ 5]  960 	ldb	5,x	; D.3214, <variable>.y
   03D9 C1 78         [ 2]  961 	cmpb	#120	;cmpqi:	; D.3214,
   03DB 2F 08         [ 3]  962 	ble	L66	;
   03DD                     963 L65:
                            964 ;----- asm -----
                            965 ; 423 "C:\Users\tsuok\FalloutTTRPG\FishGame\FishGame\source\main.enr.c" 1
                            966 	; #ENR#[315]
                            967 ; 425 "C:\Users\tsuok\FalloutTTRPG\FishGame\FishGame\source\main.enr.c" 1
                            968 	; #ENR#[316]current_fish->fish_counter = fish_intervall;
                            969 ;--- end asm ---
   03DD C6 04         [ 2]  970 	ldb	#4	;,
   03DF E7 F8 10      [ 8]  971 	stb	[16,s]	;, <variable>.fish_counter
                            972 ;----- asm -----
                            973 ; 427 "C:\Users\tsuok\FalloutTTRPG\FishGame\FishGame\source\main.enr.c" 1
                            974 	; #ENR#[317]
                            975 ; 429 "C:\Users\tsuok\FalloutTTRPG\FishGame\FishGame\source\main.enr.c" 1
                            976 	; #ENR#[318]return;
                            977 ;--- end asm ---
   03E2 16 00 82      [ 5]  978 	lbra	L68	;
   03E5                     979 L66:
                            980 ;----- asm -----
                            981 ; 432 "C:\Users\tsuok\FalloutTTRPG\FishGame\FishGame\source\main.enr.c" 1
                            982 	; #ENR#[320]
                            983 ; 434 "C:\Users\tsuok\FalloutTTRPG\FishGame\FishGame\source\main.enr.c" 1
                            984 	; #ENR#[321]current_fish->x -= current_fish->speed;
                            985 ;--- end asm ---
   03E5 AE E8 10      [ 6]  986 	ldx	16,s	; tmp125, current_fish
   03E8 E6 04         [ 5]  987 	ldb	4,x	;, <variable>.x
   03EA E7 6C         [ 5]  988 	stb	12,s	;, D.3215
   03EC AE E8 10      [ 6]  989 	ldx	16,s	; tmp126, current_fish
   03EF E6 02         [ 5]  990 	ldb	2,x	; D.3216, <variable>.speed
   03F1 E0 6C         [ 5]  991 	subb	12,s	; D.3217, D.3215
   03F3 50            [ 2]  992 	negb	; D.3217
   03F4 AE E8 10      [ 6]  993 	ldx	16,s	; tmp127, current_fish
   03F7 E7 04         [ 5]  994 	stb	4,x	; D.3217, <variable>.x
                            995 ;----- asm -----
                            996 ; 436 "C:\Users\tsuok\FalloutTTRPG\FishGame\FishGame\source\main.enr.c" 1
                            997 	; #ENR#[322]current_fish->y += current_fish->speed;
                            998 ;--- end asm ---
   03F9 AE E8 10      [ 6]  999 	ldx	16,s	; tmp128, current_fish
   03FC E6 05         [ 5] 1000 	ldb	5,x	;, <variable>.y
   03FE E7 6D         [ 5] 1001 	stb	13,s	;, D.3218
   0400 AE E8 10      [ 6] 1002 	ldx	16,s	; tmp129, current_fish
   0403 E6 02         [ 5] 1003 	ldb	2,x	; D.3219, <variable>.speed
   0405 EB 6D         [ 5] 1004 	addb	13,s	; D.3220, D.3218
   0407 AE E8 10      [ 6] 1005 	ldx	16,s	; tmp130, current_fish
   040A E7 05         [ 5] 1006 	stb	5,x	; D.3220, <variable>.y
                           1007 ;----- asm -----
                           1008 ; 438 "C:\Users\tsuok\FalloutTTRPG\FishGame\FishGame\source\main.enr.c" 1
                           1009 	; #ENR#[323]break;
                           1010 ;--- end asm ---
   040C 16 00 2D      [ 5] 1011 	lbra	L57	;
   040F                    1012 L53:
                           1013 ;----- asm -----
                           1014 ; 444 "C:\Users\tsuok\FalloutTTRPG\FishGame\FishGame\source\main.enr.c" 1
                           1015 	; #ENR#[327]
                           1016 ; 446 "C:\Users\tsuok\FalloutTTRPG\FishGame\FishGame\source\main.enr.c" 1
                           1017 	; #ENR#[328]if (current_fish->y > 120)
                           1018 ;--- end asm ---
   040F AE E8 10      [ 6] 1019 	ldx	16,s	; tmp131, current_fish
   0412 E6 05         [ 5] 1020 	ldb	5,x	; D.3221, <variable>.y
   0414 C1 78         [ 2] 1021 	cmpb	#120	;cmpqi:	; D.3221,
   0416 2F 08         [ 3] 1022 	ble	L67	;
                           1023 ;----- asm -----
                           1024 ; 449 "C:\Users\tsuok\FalloutTTRPG\FishGame\FishGame\source\main.enr.c" 1
                           1025 	; #ENR#[330]
                           1026 ; 451 "C:\Users\tsuok\FalloutTTRPG\FishGame\FishGame\source\main.enr.c" 1
                           1027 	; #ENR#[331]current_fish->fish_counter = fish_intervall;
                           1028 ;--- end asm ---
   0418 C6 04         [ 2] 1029 	ldb	#4	;,
   041A E7 F8 10      [ 8] 1030 	stb	[16,s]	;, <variable>.fish_counter
                           1031 ;----- asm -----
                           1032 ; 453 "C:\Users\tsuok\FalloutTTRPG\FishGame\FishGame\source\main.enr.c" 1
                           1033 	; #ENR#[332]
                           1034 ; 455 "C:\Users\tsuok\FalloutTTRPG\FishGame\FishGame\source\main.enr.c" 1
                           1035 	; #ENR#[333]return;
                           1036 ;--- end asm ---
   041D 16 00 47      [ 5] 1037 	lbra	L68	;
   0420                    1038 L67:
                           1039 ;----- asm -----
                           1040 ; 458 "C:\Users\tsuok\FalloutTTRPG\FishGame\FishGame\source\main.enr.c" 1
                           1041 	; #ENR#[335]
                           1042 ; 460 "C:\Users\tsuok\FalloutTTRPG\FishGame\FishGame\source\main.enr.c" 1
                           1043 	; #ENR#[336]current_fish->y += current_fish->speed;
                           1044 ;--- end asm ---
   0420 AE E8 10      [ 6] 1045 	ldx	16,s	; tmp132, current_fish
   0423 E6 05         [ 5] 1046 	ldb	5,x	;, <variable>.y
   0425 E7 6E         [ 5] 1047 	stb	14,s	;, D.3222
   0427 AE E8 10      [ 6] 1048 	ldx	16,s	; tmp133, current_fish
   042A E6 02         [ 5] 1049 	ldb	2,x	; D.3223, <variable>.speed
   042C EB 6E         [ 5] 1050 	addb	14,s	; D.3224, D.3222
   042E AE E8 10      [ 6] 1051 	ldx	16,s	; tmp134, current_fish
   0431 E7 05         [ 5] 1052 	stb	5,x	; D.3224, <variable>.y
                           1053 ;----- asm -----
                           1054 ; 462 "C:\Users\tsuok\FalloutTTRPG\FishGame\FishGame\source\main.enr.c" 1
                           1055 	; #ENR#[337]break;
                           1056 ;--- end asm ---
   0433 20 07         [ 3] 1057 	bra	L57	;
   0435                    1058 L45:
                           1059 ;----- asm -----
                           1060 ; 468 "C:\Users\tsuok\FalloutTTRPG\FishGame\FishGame\source\main.enr.c" 1
                           1061 	; #ENR#[341]
                           1062 ; 470 "C:\Users\tsuok\FalloutTTRPG\FishGame\FishGame\source\main.enr.c" 1
                           1063 	; #ENR#[342]current_fish->fish_counter = fish_intervall;
                           1064 ;--- end asm ---
   0435 C6 04         [ 2] 1065 	ldb	#4	;,
   0437 E7 F8 10      [ 8] 1066 	stb	[16,s]	;, <variable>.fish_counter
                           1067 ;----- asm -----
                           1068 ; 472 "C:\Users\tsuok\FalloutTTRPG\FishGame\FishGame\source\main.enr.c" 1
                           1069 	; #ENR#[343]return;
                           1070 ;--- end asm ---
   043A 20 2B         [ 3] 1071 	bra	L68	;
   043C                    1072 L57:
                           1073 ;----- asm -----
                           1074 ; 479 "C:\Users\tsuok\FalloutTTRPG\FishGame\FishGame\source\main.enr.c" 1
                           1075 	; #ENR#[349]
                           1076 ; 481 "C:\Users\tsuok\FalloutTTRPG\FishGame\FishGame\source\main.enr.c" 1
                           1077 	; #ENR#[350]vec_dot_dwell = dot_brightness;
                           1078 ;--- end asm ---
   043C C6 05         [ 2] 1079 	ldb	#5	;,
   043E F7 00 00      [ 5] 1080 	stb	_Vec_Dot_Dwell	;, Vec_Dot_Dwell
                           1081 ;----- asm -----
                           1082 ; 483 "C:\Users\tsuok\FalloutTTRPG\FishGame\FishGame\source\main.enr.c" 1
                           1083 	; #ENR#[351]via_t1_cnt_lo= (unsigned int)120;
                           1084 ;--- end asm ---
   0441 C6 78         [ 2] 1085 	ldb	#120	;,
   0443 F7 00 00      [ 5] 1086 	stb	_VIA_t1_cnt_lo	;, VIA_t1_cnt_lo
                           1087 ;----- asm -----
                           1088 ; 485 "C:\Users\tsuok\FalloutTTRPG\FishGame\FishGame\source\main.enr.c" 1
                           1089 	; #ENR#[352]dot_d(current_fish->y, current_fish->x);
                           1090 ;--- end asm ---
   0446 AE E8 10      [ 6] 1091 	ldx	16,s	; tmp135, current_fish
   0449 E6 04         [ 5] 1092 	ldb	4,x	;, <variable>.x
   044B E7 6F         [ 5] 1093 	stb	15,s	;, D.3225
   044D AE E8 10      [ 6] 1094 	ldx	16,s	; tmp136, current_fish
   0450 E6 05         [ 5] 1095 	ldb	5,x	; D.3226, <variable>.y
   0452 E7 E8 13      [ 5] 1096 	stb	19,s	; D.3226, a
   0455 E6 6F         [ 5] 1097 	ldb	15,s	;, D.3225
   0457 E7 E8 12      [ 5] 1098 	stb	18,s	;, b
   045A E6 E8 13      [ 5] 1099 	ldb	19,s	;, a
   045D E7 E2         [ 6] 1100 	stb	,-s	;,
   045F E6 E8 13      [ 5] 1101 	ldb	19,s	;, b
   0462 BD 00 00      [ 8] 1102 	jsr	__Dot_d
   0465 32 61         [ 5] 1103 	leas	1,s	;,,
   0467                    1104 L68:
   0467 32 E8 14      [ 5] 1105 	leas	20,s	;,,
   046A 35 C0         [ 7] 1106 	puls	u,pc	;
   046C                    1107 _init_fish:
   046C 32 7C         [ 5] 1108 	leas	-4,s	;,,
   046E AF E4         [ 5] 1109 	stx	,s	; current_fish, current_fish
                           1110 ;----- asm -----
                           1111 ; 163 "C:\Users\tsuok\FalloutTTRPG\FishGame\FishGame\source\main.enr.c" 1
                           1112 	; #ENR#[151]unsigned int choice = random() % 4;
                           1113 ;--- end asm ---
   0470 BD 00 00      [ 8] 1114 	jsr	__Random
   0473 C4 03         [ 2] 1115 	andb	#3	; tmp41,
   0475 E7 62         [ 5] 1116 	stb	2,s	; tmp41, choice
                           1117 ;----- asm -----
                           1118 ; 165 "C:\Users\tsuok\FalloutTTRPG\FishGame\FishGame\source\main.enr.c" 1
                           1119 	; #ENR#[152]signed int start =  30;
                           1120 ;--- end asm ---
   0477 C6 1E         [ 2] 1121 	ldb	#30	;,
   0479 E7 63         [ 5] 1122 	stb	3,s	;, start
                           1123 ;----- asm -----
                           1124 ; 167 "C:\Users\tsuok\FalloutTTRPG\FishGame\FishGame\source\main.enr.c" 1
                           1125 	; #ENR#[153]current_fish->fish_counter = -1;
                           1126 ;--- end asm ---
   047B C6 FF         [ 2] 1127 	ldb	#-1	;,
   047D E7 F4         [ 7] 1128 	stb	[,s]	;, <variable>.fish_counter
                           1129 ;----- asm -----
                           1130 ; 169 "C:\Users\tsuok\FalloutTTRPG\FishGame\FishGame\source\main.enr.c" 1
                           1131 	; #ENR#[154]current_fish->direction = (signed int) (random() % highest_direction);
                           1132 ;--- end asm ---
   047F BD 00 00      [ 8] 1133 	jsr	__Random
   0482 C4 07         [ 2] 1134 	andb	#7	; D.3120,
   0484 AE E4         [ 5] 1135 	ldx	,s	; tmp42, current_fish
   0486 E7 01         [ 5] 1136 	stb	1,x	; D.3120, <variable>.direction
                           1137 ;----- asm -----
                           1138 ; 171 "C:\Users\tsuok\FalloutTTRPG\FishGame\FishGame\source\main.enr.c" 1
                           1139 	; #ENR#[155]current_fish->speed = ((signed int) (random()) & 3) + 1;
                           1140 ;--- end asm ---
   0488 BD 00 00      [ 8] 1141 	jsr	__Random
   048B C4 03         [ 2] 1142 	andb	#3	; D.3123,
   048D 5C            [ 2] 1143 	incb	; D.3124
   048E AE E4         [ 5] 1144 	ldx	,s	; tmp43, current_fish
   0490 E7 02         [ 5] 1145 	stb	2,x	; D.3124, <variable>.speed
                           1146 ;----- asm -----
                           1147 ; 173 "C:\Users\tsuok\FalloutTTRPG\FishGame\FishGame\source\main.enr.c" 1
                           1148 	; #ENR#[156]current_fish->hunting = 0;
                           1149 ;--- end asm ---
   0492 AE E4         [ 5] 1150 	ldx	,s	; tmp44, current_fish
   0494 6F 03         [ 7] 1151 	clr	3,x	; <variable>.hunting
                           1152 ;----- asm -----
                           1153 ; 175 "C:\Users\tsuok\FalloutTTRPG\FishGame\FishGame\source\main.enr.c" 1
                           1154 	; #ENR#[157]if (choice == 0)
                           1155 ;--- end asm ---
   0496 6D 62         [ 7] 1156 	tst	2,s	; choice
   0498 26 0C         [ 3] 1157 	bne	L70	;
                           1158 ;----- asm -----
                           1159 ; 178 "C:\Users\tsuok\FalloutTTRPG\FishGame\FishGame\source\main.enr.c" 1
                           1160 	; #ENR#[159]current_fish->y = -100;
                           1161 ;--- end asm ---
   049A AE E4         [ 5] 1162 	ldx	,s	; tmp45, current_fish
   049C C6 9C         [ 2] 1163 	ldb	#-100	;,
   049E E7 05         [ 5] 1164 	stb	5,x	;, <variable>.y
                           1165 ;----- asm -----
                           1166 ; 180 "C:\Users\tsuok\FalloutTTRPG\FishGame\FishGame\source\main.enr.c" 1
                           1167 	; #ENR#[160]current_fish->x = start;
                           1168 ;--- end asm ---
   04A0 AE E4         [ 5] 1169 	ldx	,s	; tmp46, current_fish
   04A2 E6 63         [ 5] 1170 	ldb	3,s	;, start
   04A4 E7 04         [ 5] 1171 	stb	4,x	;, <variable>.x
   04A6                    1172 L70:
                           1173 ;----- asm -----
                           1174 ; 183 "C:\Users\tsuok\FalloutTTRPG\FishGame\FishGame\source\main.enr.c" 1
                           1175 	; #ENR#[162]if (choice == 1)
                           1176 ;--- end asm ---
   04A6 E6 62         [ 5] 1177 	ldb	2,s	;, choice
   04A8 C1 01         [ 2] 1178 	cmpb	#1	;cmpqi:	;,
   04AA 26 0C         [ 3] 1179 	bne	L71	;
                           1180 ;----- asm -----
                           1181 ; 186 "C:\Users\tsuok\FalloutTTRPG\FishGame\FishGame\source\main.enr.c" 1
                           1182 	; #ENR#[164]current_fish->y = 100;
                           1183 ;--- end asm ---
   04AC AE E4         [ 5] 1184 	ldx	,s	; tmp47, current_fish
   04AE C6 64         [ 2] 1185 	ldb	#100	;,
   04B0 E7 05         [ 5] 1186 	stb	5,x	;, <variable>.y
                           1187 ;----- asm -----
                           1188 ; 188 "C:\Users\tsuok\FalloutTTRPG\FishGame\FishGame\source\main.enr.c" 1
                           1189 	; #ENR#[165]current_fish->x = start;
                           1190 ;--- end asm ---
   04B2 AE E4         [ 5] 1191 	ldx	,s	; tmp48, current_fish
   04B4 E6 63         [ 5] 1192 	ldb	3,s	;, start
   04B6 E7 04         [ 5] 1193 	stb	4,x	;, <variable>.x
   04B8                    1194 L71:
                           1195 ;----- asm -----
                           1196 ; 191 "C:\Users\tsuok\FalloutTTRPG\FishGame\FishGame\source\main.enr.c" 1
                           1197 	; #ENR#[167]if (choice == 2)
                           1198 ;--- end asm ---
   04B8 E6 62         [ 5] 1199 	ldb	2,s	;, choice
   04BA C1 02         [ 2] 1200 	cmpb	#2	;cmpqi:	;,
   04BC 26 0C         [ 3] 1201 	bne	L72	;
                           1202 ;----- asm -----
                           1203 ; 194 "C:\Users\tsuok\FalloutTTRPG\FishGame\FishGame\source\main.enr.c" 1
                           1204 	; #ENR#[169]current_fish->y = start;
                           1205 ;--- end asm ---
   04BE AE E4         [ 5] 1206 	ldx	,s	; tmp49, current_fish
   04C0 E6 63         [ 5] 1207 	ldb	3,s	;, start
   04C2 E7 05         [ 5] 1208 	stb	5,x	;, <variable>.y
                           1209 ;----- asm -----
                           1210 ; 196 "C:\Users\tsuok\FalloutTTRPG\FishGame\FishGame\source\main.enr.c" 1
                           1211 	; #ENR#[170]current_fish->x = -100;
                           1212 ;--- end asm ---
   04C4 AE E4         [ 5] 1213 	ldx	,s	; tmp50, current_fish
   04C6 C6 9C         [ 2] 1214 	ldb	#-100	;,
   04C8 E7 04         [ 5] 1215 	stb	4,x	;, <variable>.x
   04CA                    1216 L72:
                           1217 ;----- asm -----
                           1218 ; 199 "C:\Users\tsuok\FalloutTTRPG\FishGame\FishGame\source\main.enr.c" 1
                           1219 	; #ENR#[172]if (choice == 3)
                           1220 ;--- end asm ---
   04CA E6 62         [ 5] 1221 	ldb	2,s	;, choice
   04CC C1 03         [ 2] 1222 	cmpb	#3	;cmpqi:	;,
   04CE 26 0C         [ 3] 1223 	bne	L74	;
                           1224 ;----- asm -----
                           1225 ; 202 "C:\Users\tsuok\FalloutTTRPG\FishGame\FishGame\source\main.enr.c" 1
                           1226 	; #ENR#[174]current_fish->y = start;
                           1227 ;--- end asm ---
   04D0 AE E4         [ 5] 1228 	ldx	,s	; tmp51, current_fish
   04D2 E6 63         [ 5] 1229 	ldb	3,s	;, start
   04D4 E7 05         [ 5] 1230 	stb	5,x	;, <variable>.y
                           1231 ;----- asm -----
                           1232 ; 204 "C:\Users\tsuok\FalloutTTRPG\FishGame\FishGame\source\main.enr.c" 1
                           1233 	; #ENR#[175]current_fish->x = 100;
                           1234 ;--- end asm ---
   04D6 AE E4         [ 5] 1235 	ldx	,s	; tmp52, current_fish
   04D8 C6 64         [ 2] 1236 	ldb	#100	;,
   04DA E7 04         [ 5] 1237 	stb	4,x	;, <variable>.x
   04DC                    1238 L74:
   04DC 32 64         [ 5] 1239 	leas	4,s	;,,
   04DE 39            [ 5] 1240 	rts
   04DF                    1241 _init_new_game:
   04DF 34 40         [ 6] 1242 	pshs	u	;
   04E1 32 7D         [ 5] 1243 	leas	-3,s	;,,
                           1244 ;----- asm -----
                           1245 ; 491 "C:\Users\tsuok\FalloutTTRPG\FishGame\FishGame\source\main.enr.c" 1
                           1246 	; #ENR#[357]unsigned char i;
                           1247 ; 493 "C:\Users\tsuok\FalloutTTRPG\FishGame\FishGame\source\main.enr.c" 1
                           1248 	; #ENR#[358]for (i=0; i<fishes; i++)
                           1249 ;--- end asm ---
   04E3 6F 62         [ 7] 1250 	clr	2,s	; i
   04E5 20 25         [ 3] 1251 	bra	L76	;
   04E7                    1252 L77:
                           1253 ;----- asm -----
                           1254 ; 496 "C:\Users\tsuok\FalloutTTRPG\FishGame\FishGame\source\main.enr.c" 1
                           1255 	; #ENR#[360]current_fishes[i].fish_counter = 10;
                           1256 ;--- end asm ---
   04E7 E6 62         [ 5] 1257 	ldb	2,s	; i.6, i
   04E9 4F            [ 2] 1258 	clra		;zero_extendqihi: R:b -> R:d	; i.6,
   04EA 1F 01         [ 6] 1259 	tfr	d,x	;, tmp28
   04EC AF E4         [ 5] 1260 	stx	,s	; tmp28,
   04EE EC E4         [ 5] 1261 	ldd	,s	; tmp30,
   04F0 58            [ 2] 1262 	aslb	;
   04F1 49            [ 2] 1263 	rola	;
   04F2 ED E4         [ 5] 1264 	std	,s	; tmp30,
   04F4 EC E4         [ 5] 1265 	ldd	,s	;,
   04F6 30 8B         [ 8] 1266 	leax	d,x	;,, tmp28
   04F8 AF E4         [ 5] 1267 	stx	,s	;,
   04FA EC E4         [ 5] 1268 	ldd	,s	; tmp31,
   04FC 58            [ 2] 1269 	aslb	;
   04FD 49            [ 2] 1270 	rola	;
   04FE ED E4         [ 5] 1271 	std	,s	; tmp31,
   0500 EE E4         [ 5] 1272 	ldu	,s	;,
   0502 30 C9 00 03   [ 8] 1273 	leax	_current_fishes,u	; tmp32,,
   0506 C6 0A         [ 2] 1274 	ldb	#10	;,
   0508 E7 84         [ 4] 1275 	stb	,x	;, <variable>.fish_counter
   050A 6C 62         [ 7] 1276 	inc	2,s	; i
   050C                    1277 L76:
   050C E6 62         [ 5] 1278 	ldb	2,s	;, i
   050E C1 02         [ 2] 1279 	cmpb	#2	;cmpqi:	;,
   0510 23 D5         [ 3] 1280 	bls	L77	;
   0512 32 63         [ 5] 1281 	leas	3,s	;,,
   0514 35 C0         [ 7] 1282 	puls	u,pc	;
                           1283 	.area	.bss
                           1284 	.globl	_hook_x
   0000                    1285 _hook_x:	.blkb	1
                           1286 	.globl	_hook_y
   0001                    1287 _hook_y:	.blkb	1
                           1288 	.globl	_visible
   0002                    1289 _visible:	.blkb	1
                           1290 	.globl	_current_fishes
   0003                    1291 _current_fishes:	.blkb	18
ASxxxx Assembler V05.00  (Motorola 6809), page 1.
Hexidecimal [16-Bits]

Symbol Table

    .__.$$$.       =   2710 L   |     .__.ABS.       =   0000 G
    .__.CPU.       =   0000 L   |     .__.H$L.       =   0001 L
  2 A$main$100         0039 GR  |   2 A$main$1000        03FC GR
  2 A$main$1001        03FE GR  |   2 A$main$1002        0400 GR
  2 A$main$1003        0403 GR  |   2 A$main$1004        0405 GR
  2 A$main$1005        0407 GR  |   2 A$main$1006        040A GR
  2 A$main$1011        040C GR  |   2 A$main$1019        040F GR
  2 A$main$1020        0412 GR  |   2 A$main$1021        0414 GR
  2 A$main$1022        0416 GR  |   2 A$main$1029        0418 GR
  2 A$main$1030        041A GR  |   2 A$main$1037        041D GR
  2 A$main$1045        0420 GR  |   2 A$main$1046        0423 GR
  2 A$main$1047        0425 GR  |   2 A$main$1048        0427 GR
  2 A$main$1049        042A GR  |   2 A$main$105         003C GR
  2 A$main$1050        042C GR  |   2 A$main$1051        042E GR
  2 A$main$1052        0431 GR  |   2 A$main$1057        0433 GR
  2 A$main$1065        0435 GR  |   2 A$main$1066        0437 GR
  2 A$main$1071        043A GR  |   2 A$main$1079        043C GR
  2 A$main$1080        043E GR  |   2 A$main$1085        0441 GR
  2 A$main$1086        0443 GR  |   2 A$main$1091        0446 GR
  2 A$main$1092        0449 GR  |   2 A$main$1093        044B GR
  2 A$main$1094        044D GR  |   2 A$main$1095        0450 GR
  2 A$main$1096        0452 GR  |   2 A$main$1097        0455 GR
  2 A$main$1098        0457 GR  |   2 A$main$1099        045A GR
  2 A$main$110         003F GR  |   2 A$main$1100        045D GR
  2 A$main$1101        045F GR  |   2 A$main$1102        0462 GR
  2 A$main$1103        0465 GR  |   2 A$main$1105        0467 GR
  2 A$main$1106        046A GR  |   2 A$main$1108        046C GR
  2 A$main$1109        046E GR  |   2 A$main$1114        0470 GR
  2 A$main$1115        0473 GR  |   2 A$main$1116        0475 GR
  2 A$main$1121        0477 GR  |   2 A$main$1122        0479 GR
  2 A$main$1127        047B GR  |   2 A$main$1128        047D GR
  2 A$main$1133        047F GR  |   2 A$main$1134        0482 GR
  2 A$main$1135        0484 GR  |   2 A$main$1136        0486 GR
  2 A$main$1141        0488 GR  |   2 A$main$1142        048B GR
  2 A$main$1143        048D GR  |   2 A$main$1144        048E GR
  2 A$main$1145        0490 GR  |   2 A$main$115         0042 GR
  2 A$main$1150        0492 GR  |   2 A$main$1151        0494 GR
  2 A$main$1156        0496 GR  |   2 A$main$1157        0498 GR
  2 A$main$1162        049A GR  |   2 A$main$1163        049C GR
  2 A$main$1164        049E GR  |   2 A$main$1169        04A0 GR
  2 A$main$1170        04A2 GR  |   2 A$main$1171        04A4 GR
  2 A$main$1177        04A6 GR  |   2 A$main$1178        04A8 GR
  2 A$main$1179        04AA GR  |   2 A$main$1184        04AC GR
  2 A$main$1185        04AE GR  |   2 A$main$1186        04B0 GR
  2 A$main$1191        04B2 GR  |   2 A$main$1192        04B4 GR
  2 A$main$1193        04B6 GR  |   2 A$main$1199        04B8 GR
  2 A$main$120         0045 GR  |   2 A$main$1200        04BA GR
  2 A$main$1201        04BC GR  |   2 A$main$1206        04BE GR
  2 A$main$1207        04C0 GR  |   2 A$main$1208        04C2 GR
  2 A$main$1213        04C4 GR  |   2 A$main$1214        04C6 GR
  2 A$main$1215        04C8 GR  |   2 A$main$1221        04CA GR
  2 A$main$1222        04CC GR  |   2 A$main$1223        04CE GR
  2 A$main$1228        04D0 GR  |   2 A$main$1229        04D2 GR
  2 A$main$1230        04D4 GR  |   2 A$main$1235        04D6 GR
  2 A$main$1236        04D8 GR  |   2 A$main$1237        04DA GR
  2 A$main$1239        04DC GR  |   2 A$main$1240        04DE GR
  2 A$main$1242        04DF GR  |   2 A$main$1243        04E1 GR
  2 A$main$125         0048 GR  |   2 A$main$1250        04E3 GR
  2 A$main$1251        04E5 GR  |   2 A$main$1257        04E7 GR
  2 A$main$1258        04E9 GR  |   2 A$main$1259        04EA GR
  2 A$main$126         004B GR  |   2 A$main$1260        04EC GR
  2 A$main$1261        04EE GR  |   2 A$main$1262        04F0 GR
  2 A$main$1263        04F1 GR  |   2 A$main$1264        04F2 GR
  2 A$main$1265        04F4 GR  |   2 A$main$1266        04F6 GR
  2 A$main$1267        04F8 GR  |   2 A$main$1268        04FA GR
  2 A$main$1269        04FC GR  |   2 A$main$1270        04FD GR
  2 A$main$1271        04FE GR  |   2 A$main$1272        0500 GR
  2 A$main$1273        0502 GR  |   2 A$main$1274        0506 GR
  2 A$main$1275        0508 GR  |   2 A$main$1276        050A GR
  2 A$main$1278        050C GR  |   2 A$main$1279        050E GR
  2 A$main$128         004C GR  |   2 A$main$1280        0510 GR
  2 A$main$1281        0512 GR  |   2 A$main$1282        0514 GR
  2 A$main$129         004F GR  |   2 A$main$131         0050 GR
  2 A$main$132         0053 GR  |   2 A$main$134         0054 GR
  2 A$main$135         0056 GR  |   2 A$main$136         0059 GR
  2 A$main$138         005A GR  |   2 A$main$139         005C GR
  2 A$main$140         005F GR  |   2 A$main$143         0060 GR
  2 A$main$144         0062 GR  |   2 A$main$145         0064 GR
  2 A$main$150         0066 GR  |   2 A$main$155         0069 GR
  2 A$main$156         006C GR  |   2 A$main$161         006F GR
  2 A$main$162         0071 GR  |   2 A$main$163         0073 GR
  2 A$main$164         0075 GR  |   2 A$main$165         0077 GR
  2 A$main$166         0079 GR  |   2 A$main$167         007B GR
  2 A$main$168         007D GR  |   2 A$main$169         0080 GR
  2 A$main$174         0082 GR  |   2 A$main$175         0084 GR
  2 A$main$180         0087 GR  |   2 A$main$181         0089 GR
  2 A$main$182         008B GR  |   2 A$main$183         008D GR
  2 A$main$184         0090 GR  |   2 A$main$185         0092 GR
  2 A$main$192         0093 GR  |   2 A$main$193         0096 GR
  2 A$main$194         0097 GR  |   2 A$main$199         0099 GR
  2 A$main$200         009C GR  |   2 A$main$201         009E GR
  2 A$main$202         00A1 GR  |   2 A$main$204         00A3 GR
  2 A$main$205         00A6 GR  |   2 A$main$206         00A7 GR
  2 A$main$211         00A9 GR  |   2 A$main$212         00AC GR
  2 A$main$213         00AE GR  |   2 A$main$219         00B1 GR
  2 A$main$220         00B4 GR  |   2 A$main$221         00B5 GR
  2 A$main$226         00B7 GR  |   2 A$main$227         00BA GR
  2 A$main$228         00BC GR  |   2 A$main$229         00BF GR
  2 A$main$231         00C1 GR  |   2 A$main$232         00C4 GR
  2 A$main$233         00C5 GR  |   2 A$main$238         00C7 GR
  2 A$main$239         00CA GR  |   2 A$main$240         00CC GR
  2 A$main$246         00CF GR  |   2 A$main$247         00D2 GR
  2 A$main$248         00D4 GR  |   2 A$main$249         00D6 GR
  2 A$main$250         00D8 GR  |   2 A$main$256         00DB GR
  2 A$main$257         00DE GR  |   2 A$main$258         00E0 GR
  2 A$main$259         00E2 GR  |   2 A$main$260         00E4 GR
  2 A$main$266         00E7 GR  |   2 A$main$267         00EA GR
  2 A$main$268         00EC GR  |   2 A$main$269         00EE GR
  2 A$main$270         00F0 GR  |   2 A$main$276         00F3 GR
  2 A$main$277         00F6 GR  |   2 A$main$278         00F8 GR
  2 A$main$279         00FA GR  |   2 A$main$280         00FC GR
  2 A$main$286         00FF GR  |   2 A$main$287         0102 GR
  2 A$main$289         0103 GR  |   2 A$main$290         0106 GR
  2 A$main$292         0107 GR  |   2 A$main$293         010A GR
  2 A$main$296         010B GR  |   2 A$main$301         010D GR
  2 A$main$306         0110 GR  |   2 A$main$307         0112 GR
  2 A$main$312         0115 GR  |   2 A$main$313         0118 GR
  2 A$main$314         011A GR  |   2 A$main$315         011D GR
  2 A$main$316         011F GR  |   2 A$main$317         0121 GR
  2 A$main$318         0123 GR  |   2 A$main$319         0125 GR
  2 A$main$320         0127 GR  |   2 A$main$321         0129 GR
  2 A$main$322         012C GR  |   2 A$main$327         012E GR
  2 A$main$328         0130 GR  |   2 A$main$333         0133 GR
  2 A$main$334         0136 GR  |   2 A$main$339         0139 GR
  2 A$main$340         013C GR  |   2 A$main$341         013E GR
  2 A$main$348         013F GR  |   2 A$main$349         0141 GR
  2 A$main$350         0143 GR  |   2 A$main$351         0145 GR
  2 A$main$352         0147 GR  |   2 A$main$353         0149 GR
  2 A$main$354         014C GR  |   2 A$main$355         014F GR
  2 A$main$356         0151 GR  |   2 A$main$359         0152 GR
  2 A$main$366         0154 GR  |   2 A$main$371         0157 GR
  2 A$main$376         015A GR  |   2 A$main$381         015D GR
  2 A$main$386         0160 GR  |   2 A$main$396         0163 GR
  2 A$main$397         0165 GR  |   2 A$main$402         0168 GR
  2 A$main$407         016B GR  |   2 A$main$412         016E GR
  2 A$main$413         0170 GR  |   2 A$main$418         0173 GR
  2 A$main$423         0176 GR  |   2 A$main$428         0179 GR
  2 A$main$429         017B GR  |   2 A$main$435         017E GR
  2 A$main$436         0180 GR  |   2 A$main$437         0181 GR
  2 A$main$438         0183 GR  |   2 A$main$439         0185 GR
  2 A$main$440         0187 GR  |   2 A$main$441         0188 GR
  2 A$main$442         0189 GR  |   2 A$main$443         018B GR
  2 A$main$444         018D GR  |   2 A$main$445         018F GR
  2 A$main$446         0191 GR  |   2 A$main$447         0193 GR
  2 A$main$448         0194 GR  |   2 A$main$449         0195 GR
  2 A$main$450         0197 GR  |   2 A$main$451         0199 GR
  2 A$main$452         019D GR  |   2 A$main$457         01A0 GR
  2 A$main$458         01A2 GR  |   2 A$main$459         01A3 GR
  2 A$main$460         01A5 GR  |   2 A$main$461         01A7 GR
  2 A$main$462         01A9 GR  |   2 A$main$463         01AA GR
  2 A$main$464         01AB GR  |   2 A$main$465         01AD GR
  2 A$main$466         01AF GR  |   2 A$main$467         01B1 GR
  2 A$main$468         01B3 GR  |   2 A$main$469         01B5 GR
  2 A$main$470         01B6 GR  |   2 A$main$471         01B7 GR
  2 A$main$472         01B9 GR  |   2 A$main$473         01BB GR
  2 A$main$474         01BF GR  |   2 A$main$475         01C2 GR
  2 A$main$477         01C4 GR  |   2 A$main$478         01C6 GR
  2 A$main$479         01C8 GR  |   2 A$main$480         01CC GR
  2 A$main$487         01EA GR  |   2 A$main$488         01EC GR
  2 A$main$493         01EE GR  |   2 A$main$494         01F1 GR
  2 A$main$495         01F3 GR  |   2 A$main$500         01F5 GR
  2 A$main$505         01F8 GR  |   2 A$main$506         01FA GR
  2 A$main$507         01FC GR  |   2 A$main$508         01FF GR
  2 A$main$509         0201 GR  |   2 A$main$510         0204 GR
  2 A$main$511         0206 GR  |   2 A$main$513         0208 GR
  2 A$main$514         020A GR  |   2 A$main$515         020C GR
  2 A$main$516         020E GR  |   2 A$main$517         0211 GR
  2 A$main$518         0213 GR  |   2 A$main$519         0215 GR
  2 A$main$520         0217 GR  |   2 A$main$521         0219 GR
  2 A$main$522         021B GR  |   2 A$main$523         021E GR
  2 A$main$524         0220 GR  |   2 A$main$530         0222 GR
  2 A$main$531         0225 GR  |   2 A$main$532         0226 GR
  2 A$main$537         0228 GR  |   2 A$main$538         022A GR
  2 A$main$544         022D GR  |   2 A$main$545         022F GR
  2 A$main$547         0230 GR  |   2 A$main$548         0232 GR
  2 A$main$549         0235 GR  |   2 A$main$554         0238 GR
  2 A$main$559         023B GR  |   2 A$main$560         023E GR
  2 A$main$561         023F GR  |   2 A$main$566         0241 GR
  2 A$main$567         0244 GR  |   2 A$main$568         0245 GR
  2 A$main$573         0248 GR  |   2 A$main$574         024B GR
  2 A$main$575         024C GR  |   2 A$main$580         024E GR
  2 A$main$581         0251 GR  |   2 A$main$587         0254 GR
  2 A$main$593         0257 GR  |   2 A$main$594         025A GR
  2 A$main$595         025C GR  |   2 A$main$596         025E GR
  2 A$main$597         0260 GR  |   2 A$main$598         0262 GR
  2 A$main$599         0266 GR  |   2 A$main$600         0268 GR
  2 A$main$601         0269 GR  |   2 A$main$602         026B GR
  2 A$main$603         026D GR  |   2 A$main$604         026E GR
  2 A$main$605         026F GR  |   2 A$main$606         0272 GR
  2 A$main$607         0274 GR  |   2 A$main$608         0276 GR
  2 A$main$625         0288 GR  |   2 A$main$626         028B GR
  2 A$main$627         028D GR  |   2 A$main$628         028F GR
  2 A$main$629         0291 GR  |   2 A$main$630         0294 GR
  2 A$main$631         0296 GR  |   2 A$main$632         0298 GR
  2 A$main$640         029A GR  |   2 A$main$641         029C GR
  2 A$main$648         029F GR  |   2 A$main$654         02A2 GR
  2 A$main$655         02A5 GR  |   2 A$main$656         02A7 GR
  2 A$main$657         02A9 GR  |   2 A$main$658         02AC GR
  2 A$main$659         02AE GR  |   2 A$main$660         02B0 GR
  2 A$main$661         02B3 GR  |   2 A$main$666         02B5 GR
  2 A$main$667         02B8 GR  |   2 A$main$668         02BA GR
  2 A$main$669         02BC GR  |   2 A$main$670         02BF GR
  2 A$main$671         02C1 GR  |   2 A$main$672         02C3 GR
  2 A$main$673         02C6 GR  |   2 A$main$678         02C8 GR
  2 A$main$686         02CB GR  |   2 A$main$687         02CE GR
  2 A$main$688         02D0 GR  |   2 A$main$689         02D2 GR
  2 A$main$696         02D4 GR  |   2 A$main$697         02D6 GR
  2 A$main$704         02D9 GR  |   2 A$main$712         02DC GR
  2 A$main$713         02DF GR  |   2 A$main$714         02E1 GR
  2 A$main$715         02E3 GR  |   2 A$main$716         02E6 GR
  2 A$main$717         02E8 GR  |   2 A$main$718         02EA GR
  2 A$main$719         02ED GR  |   2 A$main$724         02EF GR
  2 A$main$732         02F2 GR  |   2 A$main$733         02F5 GR
  2 A$main$734         02F7 GR  |   2 A$main$735         02F9 GR
  2 A$main$736         02FB GR  |   2 A$main$737         02FE GR
  2 A$main$738         0300 GR  |   2 A$main$739         0302 GR
  2 A$main$747         0304 GR  |   2 A$main$748         0306 GR
  2 A$main$755         0309 GR  |   2 A$main$763         030C GR
  2 A$main$764         030F GR  |   2 A$main$765         0311 GR
  2 A$main$766         0313 GR  |   2 A$main$767         0316 GR
  2 A$main$768         0318 GR  |   2 A$main$769         031A GR
  2 A$main$770         031D GR  |   2 A$main$775         031F GR
  2 A$main$776         0322 GR  |   2 A$main$777         0324 GR
  2 A$main$778         0326 GR  |   2 A$main$779         0329 GR
  2 A$main$780         032B GR  |   2 A$main$781         032D GR
  2 A$main$782         032E GR  |   2 A$main$783         0331 GR
  2 A$main$788         0333 GR  |   2 A$main$796         0336 GR
  2 A$main$797         0339 GR  |   2 A$main$798         033B GR
  2 A$main$799         033D GR  |   2 A$main$806         033F GR
  2 A$main$807         0341 GR  |   2 A$main$814         0344 GR
  2 A$main$822         0347 GR  |   2 A$main$823         034A GR
  2 A$main$824         034C GR  |   2 A$main$825         034E GR
  2 A$main$826         0351 GR  |   2 A$main$827         0353 GR
  2 A$main$828         0355 GR  |   2 A$main$829         0356 GR
  2 A$main$830         0359 GR  |   2 A$main$835         035B GR
  2 A$main$843         035E GR  |   2 A$main$844         0361 GR
  2 A$main$845         0363 GR  |   2 A$main$846         0365 GR
  2 A$main$847         0367 GR  |   2 A$main$848         036A GR
  2 A$main$849         036C GR  |   2 A$main$850         036E GR
  2 A$main$858         0370 GR  |   2 A$main$859         0372 GR
  2 A$main$866         0375 GR  |   2 A$main$874         0378 GR
  2 A$main$875         037B GR  |   2 A$main$876         037D GR
  2 A$main$877         037F GR  |   2 A$main$878         0382 GR
  2 A$main$879         0384 GR  |   2 A$main$880         0386 GR
  2 A$main$881         0387 GR  |   2 A$main$882         038A GR
  2 A$main$887         038C GR  |   2 A$main$888         038F GR
  2 A$main$889         0391 GR  |   2 A$main$890         0393 GR
  2 A$main$891         0396 GR  |   2 A$main$892         0398 GR
  2 A$main$893         039A GR  |   2 A$main$894         039B GR
  2 A$main$895         039E GR  |   2 A$main$900         03A0 GR
  2 A$main$908         03A3 GR  |   2 A$main$909         03A6 GR
  2 A$main$910         03A8 GR  |   2 A$main$911         03AA GR
  2 A$main$918         03AC GR  |   2 A$main$919         03AE GR
  2 A$main$926         03B1 GR  |   2 A$main$934         03B4 GR
  2 A$main$935         03B7 GR  |   2 A$main$936         03B9 GR
  2 A$main$937         03BB GR  |   2 A$main$938         03BE GR
  2 A$main$939         03C0 GR  |   2 A$main$940         03C2 GR
  2 A$main$941         03C3 GR  |   2 A$main$942         03C6 GR
  2 A$main$947         03C8 GR  |   2 A$main$955         03CB GR
  2 A$main$956         03CE GR  |   2 A$main$957         03D0 GR
  2 A$main$958         03D2 GR  |   2 A$main$959         03D4 GR
  2 A$main$960         03D7 GR  |   2 A$main$961         03D9 GR
  2 A$main$962         03DB GR  |   2 A$main$970         03DD GR
  2 A$main$971         03DF GR  |   2 A$main$978         03E2 GR
  2 A$main$986         03E5 GR  |   2 A$main$987         03E8 GR
  2 A$main$988         03EA GR  |   2 A$main$989         03EC GR
  2 A$main$990         03EF GR  |   2 A$main$991         03F1 GR
  2 A$main$992         03F3 GR  |   2 A$main$993         03F4 GR
  2 A$main$994         03F7 GR  |   2 A$main$999         03F9 GR
  2 L14                00A3 R   |   2 L15                00B1 R
  2 L16                00C1 R   |   2 L17                00CF R
  2 L18                00DB R   |   2 L19                00E7 R
  2 L20                00F3 R   |   2 L21                00FF R
  2 L32                01C4 R   |   2 L33                017E R
  2 L34                0163 R   |   2 L37                0208 R
  2 L38                022D R   |   2 L39                0222 R
  2 L42                0257 R   |   2 L43                0254 R
  2 L45                0435 R   |   2 L46                0288 R
  2 L47                02CB R   |   2 L48                02F2 R
  2 L49                0336 R   |   2 L50                035E R
  2 L51                03A3 R   |   2 L52                03CB R
  2 L53                040F R   |   2 L54                0278 R
  2 L55                029A R   |   2 L56                02A2 R
  2 L57                043C R   |   2 L58                02DC R
  2 L59                0304 R   |   2 L60                030C R
  2 L61                0347 R   |   2 L62                0370 R
  2 L63                0378 R   |   2 L64                03B4 R
  2 L65                03DD R   |   2 L66                03E5 R
  2 L67                0420 R   |   2 L68                0467 R
  2 L70                04A6 R   |   2 L71                04B8 R
  2 L72                04CA R   |   2 L74                04DC R
  2 L76                050C R   |   2 L77                04E7 R
  2 LC0                01CF R   |   2 _AnotherWave       001C GR
  2 _FishGame          010B GR  |   2 _MousePointer      0001 GR
    _VIA_t1_cnt_lo     **** GX  |     _Vec_Dot_Dwell     **** GX
    _Vec_Joy_1_X       **** GX  |     _Vec_Joy_1_Y       **** GX
    _Vec_Joy_Mux_1     **** GX  |     _Vec_Joy_Mux_1     **** GX
    _Vec_Joy_Mux_2     **** GX  |     _Vec_Joy_Mux_2     **** GX
    __Dot_d            **** GX  |     __Intensity_a      **** GX
    __Moveto_d         **** GX  |     __Print_Str_d      **** GX
    __Random           **** GX  |     ___Draw_VLc        **** GX
    ___Draw_VLp        **** GX  |     ___Joy_Digital     **** GX
    ___Read_Btns       **** GX  |     ___Reset0Ref       **** GX
    ___Wait_Recal      **** GX  |   3 _current_fishe     0003 GR
  2 _disable_contr     0050 R   |   2 _disable_contr     004C R
  2 _do_fish           0230 R   |   2 _drawScaleScre     0000 GR
  2 _drawSpriteWit     0060 GR  |   2 _drawWater         013F GR
  2 _enable_contro     005A R   |   2 _enable_contro     0054 R
  2 _fishCollision     01EA R   |   3 _hook_x            0000 GR
  3 _hook_y            0001 GR  |   2 _init_fish         046C R
  2 _init_new_game     04DF R   |   2 _joystick_1_x      0107 R
  2 _joystick_1_y      0103 R   |   2 _main              0152 GR
  2 _movehook          0093 GR  |   2 _setup             0039 GR
  3 _visible           0002 GR

ASxxxx Assembler V05.00  (Motorola 6809), page 2.
Hexidecimal [16-Bits]

Area Table

[_CSEG]
   0 _CODE            size    0   flags C080
   2 .text            size  516   flags  100
   3 .bss             size   15   flags    0
[_DSEG]
   1 _DATA            size    0   flags C0C0

